

Microchip MPLAB XC8 Assembler V2.31 build 20201012212115 
                                                                                               Wed Aug 11 02:36:35 2021

Microchip MPLAB XC8 C Compiler v2.31 (Free license) build 20201012212115 Og1 
     1                           	processor	16F887
     2                           	pagewidth 120
     3                           	opt	flic
     4                           	psect	strings,global,class=STRING,delta=2,noexec
     5                           	psect	cinit,global,class=CODE,merge=1,delta=2
     6                           	psect	bssBANK0,global,class=BANK0,space=1,delta=1,noexec
     7                           	psect	bssBANK1,global,class=BANK1,space=1,delta=1,noexec
     8                           	psect	cstackCOMMON,global,class=COMMON,space=1,delta=1,noexec
     9                           	psect	cstackBANK0,global,class=BANK0,space=1,delta=1,noexec
    10                           	psect	maintext,global,class=CODE,split=1,delta=2
    11                           	psect	text1,local,class=CODE,merge=1,delta=2
    12                           	psect	text2,local,class=CODE,merge=1,delta=2
    13                           	psect	text3,local,class=CODE,merge=1,delta=2
    14                           	psect	text4,local,class=CODE,merge=1,delta=2,group=1
    15                           	psect	text5,local,class=CODE,merge=1,delta=2
    16                           	psect	text6,local,class=CODE,merge=1,delta=2
    17                           	psect	text7,local,class=CODE,merge=1,delta=2,group=1
    18                           	psect	text8,local,class=CODE,merge=1,delta=2,group=1
    19                           	psect	text9,local,class=CODE,merge=1,delta=2,group=1
    20                           	psect	text10,local,class=CODE,merge=1,delta=2,group=1
    21                           	psect	text11,local,class=CODE,merge=1,delta=2,group=1
    22                           	psect	text12,local,class=CODE,merge=1,delta=2,group=1
    23                           	psect	text13,local,class=CODE,merge=1,delta=2,group=1
    24                           	psect	text14,local,class=CODE,merge=1,delta=2
    25                           	psect	text15,local,class=CODE,merge=1,delta=2
    26                           	psect	text16,local,class=CODE,merge=1,delta=2
    27                           	psect	text17,local,class=CODE,merge=1,delta=2
    28                           	psect	text18,local,class=CODE,merge=1,delta=2
    29                           	psect	text19,local,class=CODE,merge=1,delta=2
    30                           	psect	text20,local,class=CODE,merge=1,delta=2
    31                           	psect	text21,local,class=CODE,merge=1,delta=2
    32                           	psect	text22,local,class=CODE,merge=1,delta=2
    33                           	psect	text23,local,class=CODE,merge=1,delta=2
    34                           	psect	text24,local,class=CODE,merge=1,delta=2
    35                           	psect	text25,local,class=CODE,merge=1,delta=2
    36                           	psect	config,global,abs,ovrld,class=CONFIG,space=4,delta=2,noexec
    37                           	dabs	1,0x7E,2
    38  0000                     
    39                           ; Version 2.20
    40                           ; Generated 12/02/2020 GMT
    41                           ; 
    42                           ; Copyright © 2020, Microchip Technology Inc. and its subsidiaries ("Microchip")
    43                           ; All rights reserved.
    44                           ; 
    45                           ; This software is developed by Microchip Technology Inc. and its subsidiaries ("Microch
      +                          ip").
    46                           ; 
    47                           ; Redistribution and use in source and binary forms, with or without modification, are
    48                           ; permitted provided that the following conditions are met:
    49                           ; 
    50                           ;     1. Redistributions of source code must retain the above copyright notice, this lis
      +                          t of
    51                           ;        conditions and the following disclaimer.
    52                           ; 
    53                           ;     2. Redistributions in binary form must reproduce the above copyright notice, this 
      +                          list
    54                           ;        of conditions and the following disclaimer in the documentation and/or other
    55                           ;        materials provided with the distribution.
    56                           ; 
    57                           ;     3. Microchip's name may not be used to endorse or promote products derived from th
      +                          is
    58                           ;        software without specific prior written permission.
    59                           ; 
    60                           ; THIS SOFTWARE IS PROVIDED BY MICROCHIP "AS IS" AND ANY EXPRESS OR IMPLIED WARRANTIES,
    61                           ; INCLUDING, BUT NOT LIMITED TO, THE IMPLIED WARRANTIES OF MERCHANTABILITY AND FITNESS F
      +                          OR
    62                           ; PURPOSE ARE DISCLAIMED.  IN NO EVENT SHALL MICROCHIP BE LIABLE FOR ANY DIRECT, INDIREC
      +                          T,
    63                           ; INCIDENTAL, SPECIAL, EXEMPLARY, OR CONSEQUENTIAL DAMAGES (INCLUDING BUT NOT LIMITED TO
    64                           ; PROCUREMENT OF SUBSTITUTE GOODS OR SERVICES; LOSS OF USE, DATA OR PROFITS; OR BUSINESS
    65                           ; INTERRUPTION) HOWSOEVER CAUSED AND ON ANY THEORY OF LIABILITY, WHETHER IN CONTRACT, ST
      +                          RICT
    66                           ; LIABILITY, OR TORT (INCLUDING NEGLIGENCE OR OTHERWISE) ARISING IN ANY WAY OUT OF THE U
      +                          SE OF
    67                           ; THIS SOFTWARE, EVEN IF ADVISED OF THE POSSIBILITY OF SUCH DAMAGE.
    68                           ; 
    69                           ; 
    70                           ; Code-generator required, PIC16F887 Definitions
    71                           ; 
    72                           ; SFR Addresses
    73  0000                     	;# 
    74  0001                     	;# 
    75  0002                     	;# 
    76  0003                     	;# 
    77  0004                     	;# 
    78  0005                     	;# 
    79  0006                     	;# 
    80  0007                     	;# 
    81  0008                     	;# 
    82  0009                     	;# 
    83  000A                     	;# 
    84  000B                     	;# 
    85  000C                     	;# 
    86  000D                     	;# 
    87  000E                     	;# 
    88  000E                     	;# 
    89  000F                     	;# 
    90  0010                     	;# 
    91  0011                     	;# 
    92  0012                     	;# 
    93  0013                     	;# 
    94  0014                     	;# 
    95  0015                     	;# 
    96  0015                     	;# 
    97  0016                     	;# 
    98  0017                     	;# 
    99  0018                     	;# 
   100  0019                     	;# 
   101  001A                     	;# 
   102  001B                     	;# 
   103  001B                     	;# 
   104  001C                     	;# 
   105  001D                     	;# 
   106  001E                     	;# 
   107  001F                     	;# 
   108  0081                     	;# 
   109  0085                     	;# 
   110  0086                     	;# 
   111  0087                     	;# 
   112  0088                     	;# 
   113  0089                     	;# 
   114  008C                     	;# 
   115  008D                     	;# 
   116  008E                     	;# 
   117  008F                     	;# 
   118  0090                     	;# 
   119  0091                     	;# 
   120  0092                     	;# 
   121  0093                     	;# 
   122  0093                     	;# 
   123  0093                     	;# 
   124  0094                     	;# 
   125  0095                     	;# 
   126  0096                     	;# 
   127  0097                     	;# 
   128  0098                     	;# 
   129  0099                     	;# 
   130  009A                     	;# 
   131  009B                     	;# 
   132  009C                     	;# 
   133  009D                     	;# 
   134  009E                     	;# 
   135  009F                     	;# 
   136  0105                     	;# 
   137  0107                     	;# 
   138  0108                     	;# 
   139  0109                     	;# 
   140  010C                     	;# 
   141  010C                     	;# 
   142  010D                     	;# 
   143  010E                     	;# 
   144  010F                     	;# 
   145  0185                     	;# 
   146  0187                     	;# 
   147  0188                     	;# 
   148  0189                     	;# 
   149  018C                     	;# 
   150  018D                     	;# 
   151  0000                     	;# 
   152  0001                     	;# 
   153  0002                     	;# 
   154  0003                     	;# 
   155  0004                     	;# 
   156  0005                     	;# 
   157  0006                     	;# 
   158  0007                     	;# 
   159  0008                     	;# 
   160  0009                     	;# 
   161  000A                     	;# 
   162  000B                     	;# 
   163  000C                     	;# 
   164  000D                     	;# 
   165  000E                     	;# 
   166  000E                     	;# 
   167  000F                     	;# 
   168  0010                     	;# 
   169  0011                     	;# 
   170  0012                     	;# 
   171  0013                     	;# 
   172  0014                     	;# 
   173  0015                     	;# 
   174  0015                     	;# 
   175  0016                     	;# 
   176  0017                     	;# 
   177  0018                     	;# 
   178  0019                     	;# 
   179  001A                     	;# 
   180  001B                     	;# 
   181  001B                     	;# 
   182  001C                     	;# 
   183  001D                     	;# 
   184  001E                     	;# 
   185  001F                     	;# 
   186  0081                     	;# 
   187  0085                     	;# 
   188  0086                     	;# 
   189  0087                     	;# 
   190  0088                     	;# 
   191  0089                     	;# 
   192  008C                     	;# 
   193  008D                     	;# 
   194  008E                     	;# 
   195  008F                     	;# 
   196  0090                     	;# 
   197  0091                     	;# 
   198  0092                     	;# 
   199  0093                     	;# 
   200  0093                     	;# 
   201  0093                     	;# 
   202  0094                     	;# 
   203  0095                     	;# 
   204  0096                     	;# 
   205  0097                     	;# 
   206  0098                     	;# 
   207  0099                     	;# 
   208  009A                     	;# 
   209  009B                     	;# 
   210  009C                     	;# 
   211  009D                     	;# 
   212  009E                     	;# 
   213  009F                     	;# 
   214  0105                     	;# 
   215  0107                     	;# 
   216  0108                     	;# 
   217  0109                     	;# 
   218  010C                     	;# 
   219  010C                     	;# 
   220  010D                     	;# 
   221  010E                     	;# 
   222  010F                     	;# 
   223  0185                     	;# 
   224  0187                     	;# 
   225  0188                     	;# 
   226  0189                     	;# 
   227  018C                     	;# 
   228  018D                     	;# 
   229  0000                     	;# 
   230  0001                     	;# 
   231  0002                     	;# 
   232  0003                     	;# 
   233  0004                     	;# 
   234  0005                     	;# 
   235  0006                     	;# 
   236  0007                     	;# 
   237  0008                     	;# 
   238  0009                     	;# 
   239  000A                     	;# 
   240  000B                     	;# 
   241  000C                     	;# 
   242  000D                     	;# 
   243  000E                     	;# 
   244  000E                     	;# 
   245  000F                     	;# 
   246  0010                     	;# 
   247  0011                     	;# 
   248  0012                     	;# 
   249  0013                     	;# 
   250  0014                     	;# 
   251  0015                     	;# 
   252  0015                     	;# 
   253  0016                     	;# 
   254  0017                     	;# 
   255  0018                     	;# 
   256  0019                     	;# 
   257  001A                     	;# 
   258  001B                     	;# 
   259  001B                     	;# 
   260  001C                     	;# 
   261  001D                     	;# 
   262  001E                     	;# 
   263  001F                     	;# 
   264  0081                     	;# 
   265  0085                     	;# 
   266  0086                     	;# 
   267  0087                     	;# 
   268  0088                     	;# 
   269  0089                     	;# 
   270  008C                     	;# 
   271  008D                     	;# 
   272  008E                     	;# 
   273  008F                     	;# 
   274  0090                     	;# 
   275  0091                     	;# 
   276  0092                     	;# 
   277  0093                     	;# 
   278  0093                     	;# 
   279  0093                     	;# 
   280  0094                     	;# 
   281  0095                     	;# 
   282  0096                     	;# 
   283  0097                     	;# 
   284  0098                     	;# 
   285  0099                     	;# 
   286  009A                     	;# 
   287  009B                     	;# 
   288  009C                     	;# 
   289  009D                     	;# 
   290  009E                     	;# 
   291  009F                     	;# 
   292  0105                     	;# 
   293  0107                     	;# 
   294  0108                     	;# 
   295  0109                     	;# 
   296  010C                     	;# 
   297  010C                     	;# 
   298  010D                     	;# 
   299  010E                     	;# 
   300  010F                     	;# 
   301  0185                     	;# 
   302  0187                     	;# 
   303  0188                     	;# 
   304  0189                     	;# 
   305  018C                     	;# 
   306  018D                     	;# 
   307  0000                     	;# 
   308  0001                     	;# 
   309  0002                     	;# 
   310  0003                     	;# 
   311  0004                     	;# 
   312  0005                     	;# 
   313  0006                     	;# 
   314  0007                     	;# 
   315  0008                     	;# 
   316  0009                     	;# 
   317  000A                     	;# 
   318  000B                     	;# 
   319  000C                     	;# 
   320  000D                     	;# 
   321  000E                     	;# 
   322  000E                     	;# 
   323  000F                     	;# 
   324  0010                     	;# 
   325  0011                     	;# 
   326  0012                     	;# 
   327  0013                     	;# 
   328  0014                     	;# 
   329  0015                     	;# 
   330  0015                     	;# 
   331  0016                     	;# 
   332  0017                     	;# 
   333  0018                     	;# 
   334  0019                     	;# 
   335  001A                     	;# 
   336  001B                     	;# 
   337  001B                     	;# 
   338  001C                     	;# 
   339  001D                     	;# 
   340  001E                     	;# 
   341  001F                     	;# 
   342  0081                     	;# 
   343  0085                     	;# 
   344  0086                     	;# 
   345  0087                     	;# 
   346  0088                     	;# 
   347  0089                     	;# 
   348  008C                     	;# 
   349  008D                     	;# 
   350  008E                     	;# 
   351  008F                     	;# 
   352  0090                     	;# 
   353  0091                     	;# 
   354  0092                     	;# 
   355  0093                     	;# 
   356  0093                     	;# 
   357  0093                     	;# 
   358  0094                     	;# 
   359  0095                     	;# 
   360  0096                     	;# 
   361  0097                     	;# 
   362  0098                     	;# 
   363  0099                     	;# 
   364  009A                     	;# 
   365  009B                     	;# 
   366  009C                     	;# 
   367  009D                     	;# 
   368  009E                     	;# 
   369  009F                     	;# 
   370  0105                     	;# 
   371  0107                     	;# 
   372  0108                     	;# 
   373  0109                     	;# 
   374  010C                     	;# 
   375  010C                     	;# 
   376  010D                     	;# 
   377  010E                     	;# 
   378  010F                     	;# 
   379  0185                     	;# 
   380  0187                     	;# 
   381  0188                     	;# 
   382  0189                     	;# 
   383  018C                     	;# 
   384  018D                     	;# 
   385  0013                     _SSPBUF	set	19
   386  0014                     _SSPCON	set	20
   387  0008                     _PORTDbits	set	8
   388  0008                     _PORTD	set	8
   389  0007                     _PORTC	set	7
   390  0006                     _PORTB	set	6
   391  0005                     _PORTA	set	5
   392  0063                     _SSPIF	set	99
   393  005E                     _PEIE	set	94
   394  005F                     _GIE	set	95
   395  0043                     _RD3	set	67
   396  0047                     _RD7	set	71
   397  0046                     _RD6	set	70
   398  0045                     _RD5	set	69
   399  0044                     _RD4	set	68
   400  0091                     _SSPCON2bits	set	145
   401  0087                     _TRISCbits	set	135
   402  0094                     _SSPSTAT	set	148
   403  0093                     _SSPADD	set	147
   404  0091                     _SSPCON2	set	145
   405  008F                     _OSCCONbits	set	143
   406  0089                     _TRISE	set	137
   407  0088                     _TRISD	set	136
   408  0463                     _SSPIE	set	1123
   409  043C                     _TRISC4	set	1084
   410  043B                     _TRISC3	set	1083
   411  0189                     _ANSELH	set	393
   412                           
   413                           	psect	strings
   414  0800                     __pstrings:
   415  0800                     stringtab:
   416  0800                     __stringtab:
   417  0800                     stringcode:	
   418                           ;	String table - string pointers are 1 byte each
   419                           
   420  0800                     stringdir:
   421  0800  3008               	movlw	high stringdir
   422  0801  008A               	movwf	10
   423  0802  0804               	movf	4,w
   424  0803  0A84               	incf	4,f
   425  0804  0782               	addwf	2,f
   426  0805                     __stringbase:
   427  0805  3400               	retlw	0
   428  0806                     __end_of__stringtab:
   429  0806                     STR_1:
   430  0806  3453               	retlw	83	;'S'
   431  0807  3431               	retlw	49	;'1'
   432  0808  343A               	retlw	58	;':'
   433  0809  3420               	retlw	32	;' '
   434  080A  3420               	retlw	32	;' '
   435  080B  3420               	retlw	32	;' '
   436  080C  3453               	retlw	83	;'S'
   437  080D  3432               	retlw	50	;'2'
   438  080E  343A               	retlw	58	;':'
   439  080F  3420               	retlw	32	;' '
   440  0810  3420               	retlw	32	;' '
   441  0811  3420               	retlw	32	;' '
   442  0812  3453               	retlw	83	;'S'
   443  0813  3433               	retlw	51	;'3'
   444  0814  343A               	retlw	58	;':'
   445  0815  3400               	retlw	0
   446  0816                     STR_3:
   447  0816  3420               	retlw	32	;' '
   448  0817  3420               	retlw	32	;' '
   449  0818  3400               	retlw	0
   450  0819                     STR_4:
   451  0819  3443               	retlw	67	;'C'
   452  081A  3420               	retlw	32	;' '
   453  081B  3400               	retlw	0
   454  081C                     STR_2:
   455  081C  342E               	retlw	46	;'.'
   456  081D  3400               	retlw	0
   457                           
   458                           	psect	cinit
   459  07EA                     start_initialization:	
   460                           ; #config settings
   461                           
   462  07EA                     __initialization:
   463                           
   464                           ; Clear objects allocated to BANK0
   465  07EA  1283               	bcf	3,5	;RP0=0, select bank0
   466  07EB  1303               	bcf	3,6	;RP1=0, select bank0
   467  07EC  01E3               	clrf	__pbssBANK0& (0+127)
   468  07ED  01E4               	clrf	(__pbssBANK0+1)& (0+127)
   469  07EE  01E5               	clrf	(__pbssBANK0+2)& (0+127)
   470  07EF  01E6               	clrf	(__pbssBANK0+3)& (0+127)
   471  07F0  01E7               	clrf	(__pbssBANK0+4)& (0+127)
   472  07F1  01E8               	clrf	(__pbssBANK0+5)& (0+127)
   473  07F2  01E9               	clrf	(__pbssBANK0+6)& (0+127)
   474  07F3  01EA               	clrf	(__pbssBANK0+7)& (0+127)
   475  07F4  01EB               	clrf	(__pbssBANK0+8)& (0+127)
   476  07F5  01EC               	clrf	(__pbssBANK0+9)& (0+127)
   477                           
   478                           ; Clear objects allocated to BANK1
   479  07F6  1683               	bsf	3,5	;RP0=1, select bank1
   480  07F7  1303               	bcf	3,6	;RP1=0, select bank1
   481  07F8  01A0               	clrf	__pbssBANK1& (0+127)
   482  07F9  01A1               	clrf	(__pbssBANK1+1)& (0+127)
   483  07FA  01A2               	clrf	(__pbssBANK1+2)& (0+127)
   484  07FB  01A3               	clrf	(__pbssBANK1+3)& (0+127)
   485  07FC                     end_of_initialization:	
   486                           ;End of C runtime variable initialization code
   487                           
   488  07FC                     __end_of__initialization:
   489  07FC  0183               	clrf	3
   490  07FD  120A  118A  2855   	ljmp	_main	;jump to C main() function
   491                           
   492                           	psect	bssBANK0
   493  0063                     __pbssBANK0:
   494  0063                     _temp:
   495  0063                     	ds	2
   496  0065                     _sensor2:
   497  0065                     	ds	1
   498  0066                     _sensor1:
   499  0066                     	ds	1
   500  0067                     _TEMP:
   501  0067                     	ds	1
   502  0068                     _POT:
   503  0068                     	ds	1
   504  0069                     _cen:
   505  0069                     	ds	1
   506  006A                     _dec:
   507  006A                     	ds	1
   508  006B                     _un:
   509  006B                     	ds	1
   510  006C                     _VOL:
   511  006C                     	ds	1
   512                           
   513                           	psect	bssBANK1
   514  00A0                     __pbssBANK1:
   515  00A0                     _temp1:
   516  00A0                     	ds	4
   517                           
   518                           	psect	cstackCOMMON
   519  0070                     __pcstackCOMMON:
   520  0070                     ?_Lcd_Init:
   521  0070                     ?_Lcd_Clear:	
   522                           ; 1 bytes @ 0x0
   523                           
   524  0070                     ?_Lcd_Write_String:	
   525                           ; 1 bytes @ 0x0
   526                           
   527  0070                     ?_I2C_Master_Start:	
   528                           ; 1 bytes @ 0x0
   529                           
   530  0070                     ??_I2C_Master_Start:	
   531                           ; 1 bytes @ 0x0
   532                           
   533  0070                     ?_I2C_Master_Write:	
   534                           ; 1 bytes @ 0x0
   535                           
   536  0070                     ?_I2C_Master_Stop:	
   537                           ; 1 bytes @ 0x0
   538                           
   539  0070                     ??_I2C_Master_Stop:	
   540                           ; 1 bytes @ 0x0
   541                           
   542  0070                     ?_voltaje:	
   543                           ; 1 bytes @ 0x0
   544                           
   545  0070                     ?_Lcd_Write_Char:	
   546                           ; 1 bytes @ 0x0
   547                           
   548  0070                     ?_decimal:	
   549                           ; 1 bytes @ 0x0
   550                           
   551  0070                     ?_Temperatura:	
   552                           ; 1 bytes @ 0x0
   553                           
   554  0070                     ?_setup:	
   555                           ; 1 bytes @ 0x0
   556                           
   557  0070                     ?_main:	
   558                           ; 1 bytes @ 0x0
   559                           
   560  0070                     ?_Lcd_Port:	
   561                           ; 1 bytes @ 0x0
   562                           
   563  0070                     ??_Lcd_Port:	
   564                           ; 1 bytes @ 0x0
   565                           
   566  0070                     ?_Lcd_Cmd:	
   567                           ; 1 bytes @ 0x0
   568                           
   569  0070                     ?_I2C_Master_Wait:	
   570                           ; 1 bytes @ 0x0
   571                           
   572  0070                     ??_I2C_Master_Wait:	
   573                           ; 1 bytes @ 0x0
   574                           
   575  0070                     ?___bmul:	
   576                           ; 1 bytes @ 0x0
   577                           
   578  0070                     ?_I2C_Master_Read:	
   579                           ; 1 bytes @ 0x0
   580                           
   581  0070                     ?__Umul8_16:	
   582                           ; 2 bytes @ 0x0
   583                           
   584  0070                     ?___awdiv:	
   585                           ; 2 bytes @ 0x0
   586                           
   587  0070                     ?___lldiv:	
   588                           ; 2 bytes @ 0x0
   589                           
   590  0070                     ?___xxtofl:	
   591                           ; 4 bytes @ 0x0
   592                           
   593  0070                     Lcd_Port@a:	
   594                           ; 4 bytes @ 0x0
   595                           
   596  0070                     ___bmul@multiplicand:	
   597                           ; 1 bytes @ 0x0
   598                           
   599  0070                     __Umul8_16@multiplicand:	
   600                           ; 1 bytes @ 0x0
   601                           
   602  0070                     I2C_Master_Write@d:	
   603                           ; 1 bytes @ 0x0
   604                           
   605  0070                     I2C_Master_Read@a:	
   606                           ; 2 bytes @ 0x0
   607                           
   608  0070                     ___awdiv@divisor:	
   609                           ; 2 bytes @ 0x0
   610                           
   611  0070                     ___lldiv@divisor:	
   612                           ; 2 bytes @ 0x0
   613                           
   614  0070                     ___xxtofl@val:	
   615                           ; 4 bytes @ 0x0
   616                           
   617                           
   618                           ; 4 bytes @ 0x0
   619  0070                     	ds	1
   620  0071                     ??_Lcd_Write_Char:
   621  0071                     ??_Lcd_Cmd:	
   622                           ; 1 bytes @ 0x1
   623                           
   624  0071                     ??___bmul:	
   625                           ; 1 bytes @ 0x1
   626                           
   627                           
   628                           ; 1 bytes @ 0x1
   629  0071                     	ds	1
   630  0072                     ??_I2C_Master_Write:
   631  0072                     ??_I2C_Master_Read:	
   632                           ; 1 bytes @ 0x2
   633                           
   634  0072                     ??__Umul8_16:	
   635                           ; 1 bytes @ 0x2
   636                           
   637  0072                     Lcd_Write_Char@temp:	
   638                           ; 1 bytes @ 0x2
   639                           
   640  0072                     ___bmul@product:	
   641                           ; 1 bytes @ 0x2
   642                           
   643  0072                     ___awdiv@dividend:	
   644                           ; 1 bytes @ 0x2
   645                           
   646                           
   647                           ; 2 bytes @ 0x2
   648  0072                     	ds	1
   649  0073                     Lcd_Cmd@a:
   650  0073                     Lcd_Write_Char@y:	
   651                           ; 1 bytes @ 0x3
   652                           
   653  0073                     ___bmul@multiplier:	
   654                           ; 1 bytes @ 0x3
   655                           
   656                           
   657                           ; 1 bytes @ 0x3
   658  0073                     	ds	1
   659  0074                     ??_Lcd_Init:
   660  0074                     ??_Lcd_Clear:	
   661                           ; 1 bytes @ 0x4
   662                           
   663  0074                     ?_Lcd_Set_Cursor:	
   664                           ; 1 bytes @ 0x4
   665                           
   666  0074                     ??___awdiv:	
   667                           ; 1 bytes @ 0x4
   668                           
   669  0074                     ??___xxtofl:	
   670                           ; 1 bytes @ 0x4
   671                           
   672  0074                     Lcd_Set_Cursor@b:	
   673                           ; 1 bytes @ 0x4
   674                           
   675  0074                     Lcd_Write_Char@a:	
   676                           ; 1 bytes @ 0x4
   677                           
   678  0074                     I2C_Master_Read@temp:	
   679                           ; 1 bytes @ 0x4
   680                           
   681  0074                     __Umul8_16@product:	
   682                           ; 2 bytes @ 0x4
   683                           
   684  0074                     ___lldiv@dividend:	
   685                           ; 2 bytes @ 0x4
   686                           
   687                           
   688                           ; 4 bytes @ 0x4
   689  0074                     	ds	1
   690  0075                     ??_Lcd_Set_Cursor:
   691  0075                     ??_Lcd_Write_String:	
   692                           ; 1 bytes @ 0x5
   693                           
   694  0075                     ___awdiv@counter:	
   695                           ; 1 bytes @ 0x5
   696                           
   697  0075                     Lcd_Write_String@i:	
   698                           ; 1 bytes @ 0x5
   699                           
   700                           
   701                           ; 2 bytes @ 0x5
   702  0075                     	ds	1
   703  0076                     ___awdiv@sign:
   704  0076                     __Umul8_16@word_mpld:	
   705                           ; 1 bytes @ 0x6
   706                           
   707                           
   708                           ; 2 bytes @ 0x6
   709  0076                     	ds	1
   710  0077                     Lcd_Set_Cursor@a:
   711  0077                     Lcd_Write_String@a:	
   712                           ; 1 bytes @ 0x7
   713                           
   714  0077                     ___awdiv@quotient:	
   715                           ; 1 bytes @ 0x7
   716                           
   717                           
   718                           ; 2 bytes @ 0x7
   719  0077                     	ds	1
   720  0078                     ??___lldiv:
   721  0078                     Lcd_Set_Cursor@z:	
   722                           ; 1 bytes @ 0x8
   723                           
   724  0078                     __Umul8_16@multiplier:	
   725                           ; 1 bytes @ 0x8
   726                           
   727  0078                     ___xxtofl@sign:	
   728                           ; 1 bytes @ 0x8
   729                           
   730                           
   731                           ; 1 bytes @ 0x8
   732  0078                     	ds	1
   733  0079                     ??_decimal:
   734  0079                     Lcd_Set_Cursor@y:	
   735                           ; 1 bytes @ 0x9
   736                           
   737  0079                     ___xxtofl@exp:	
   738                           ; 1 bytes @ 0x9
   739                           
   740  0079                     ___lldiv@quotient:	
   741                           ; 1 bytes @ 0x9
   742                           
   743                           
   744                           ; 4 bytes @ 0x9
   745  0079                     	ds	1
   746  007A                     Lcd_Set_Cursor@temp:
   747  007A                     ___xxtofl@arg:	
   748                           ; 1 bytes @ 0xA
   749                           
   750                           
   751                           ; 4 bytes @ 0xA
   752  007A                     	ds	2
   753  007C                     decimal@var:
   754                           
   755                           ; 1 bytes @ 0xC
   756  007C                     	ds	1
   757  007D                     decimal@VAL:
   758  007D                     ___lldiv@counter:	
   759                           ; 1 bytes @ 0xD
   760                           
   761                           
   762                           ; 1 bytes @ 0xD
   763  007D                     	ds	1
   764  007E                     ??_setup:
   765                           
   766                           	psect	cstackBANK0
   767  0020                     __pcstackBANK0:	
   768                           ; 1 bytes @ 0xE
   769                           
   770  0020                     ?_I2C_Master_Init:
   771  0020                     ?___flmul:	
   772                           ; 1 bytes @ 0x0
   773                           
   774  0020                     I2C_Master_Init@c:	
   775                           ; 4 bytes @ 0x0
   776                           
   777  0020                     ___flmul@b:	
   778                           ; 4 bytes @ 0x0
   779                           
   780                           
   781                           ; 4 bytes @ 0x0
   782  0020                     	ds	4
   783  0024                     ??_I2C_Master_Init:
   784  0024                     ___flmul@a:	
   785                           ; 1 bytes @ 0x4
   786                           
   787                           
   788                           ; 4 bytes @ 0x4
   789  0024                     	ds	4
   790  0028                     ??___flmul:
   791                           
   792                           ; 1 bytes @ 0x8
   793  0028                     	ds	5
   794  002D                     ___flmul@sign:
   795                           
   796                           ; 1 bytes @ 0xD
   797  002D                     	ds	1
   798  002E                     ___flmul@grs:
   799                           
   800                           ; 4 bytes @ 0xE
   801  002E                     	ds	4
   802  0032                     ___flmul@aexp:
   803                           
   804                           ; 1 bytes @ 0x12
   805  0032                     	ds	1
   806  0033                     ___flmul@bexp:
   807                           
   808                           ; 1 bytes @ 0x13
   809  0033                     	ds	1
   810  0034                     ___flmul@prod:
   811                           
   812                           ; 4 bytes @ 0x14
   813  0034                     	ds	4
   814  0038                     ___flmul@temp:
   815                           
   816                           ; 2 bytes @ 0x18
   817  0038                     	ds	2
   818  003A                     ?___fladd:
   819  003A                     ___fladd@b:	
   820                           ; 4 bytes @ 0x1A
   821                           
   822                           
   823                           ; 4 bytes @ 0x1A
   824  003A                     	ds	4
   825  003E                     ___fladd@a:
   826                           
   827                           ; 4 bytes @ 0x1E
   828  003E                     	ds	4
   829  0042                     ??___fladd:
   830                           
   831                           ; 1 bytes @ 0x22
   832  0042                     	ds	8
   833  004A                     ___fladd@signs:
   834                           
   835                           ; 1 bytes @ 0x2A
   836  004A                     	ds	1
   837  004B                     ___fladd@aexp:
   838                           
   839                           ; 1 bytes @ 0x2B
   840  004B                     	ds	1
   841  004C                     ___fladd@bexp:
   842                           
   843                           ; 1 bytes @ 0x2C
   844  004C                     	ds	1
   845  004D                     ___fladd@grs:
   846                           
   847                           ; 1 bytes @ 0x2D
   848  004D                     	ds	1
   849  004E                     ?___fltol:
   850  004E                     ___fltol@f1:	
   851                           ; 4 bytes @ 0x2E
   852                           
   853                           
   854                           ; 4 bytes @ 0x2E
   855  004E                     	ds	4
   856  0052                     ??___fltol:
   857                           
   858                           ; 1 bytes @ 0x32
   859  0052                     	ds	5
   860  0057                     ___fltol@sign1:
   861                           
   862                           ; 1 bytes @ 0x37
   863  0057                     	ds	1
   864  0058                     ___fltol@exp1:
   865                           
   866                           ; 1 bytes @ 0x38
   867  0058                     	ds	1
   868  0059                     ??_voltaje:
   869  0059                     ??_Temperatura:	
   870                           ; 1 bytes @ 0x39
   871                           
   872                           
   873                           ; 1 bytes @ 0x39
   874  0059                     	ds	5
   875  005E                     voltaje@var:
   876  005E                     Temperatura@var:	
   877                           ; 1 bytes @ 0x3E
   878                           
   879                           
   880                           ; 1 bytes @ 0x3E
   881  005E                     	ds	1
   882  005F                     voltaje@VAL:
   883  005F                     Temperatura@VAL:	
   884                           ; 1 bytes @ 0x3F
   885                           
   886                           
   887                           ; 1 bytes @ 0x3F
   888  005F                     	ds	1
   889  0060                     ??_main:
   890                           
   891                           ; 1 bytes @ 0x40
   892  0060                     	ds	3
   893                           
   894                           	psect	maintext
   895  0055                     __pmaintext:	
   896 ;;
   897 ;;Main: autosize = 0, tempsize = 3, incstack = 0, save=0
   898 ;;
   899 ;; *************** function _main *****************
   900 ;; Defined at:
   901 ;;		line 104 in file "Master_04.c"
   902 ;; Parameters:    Size  Location     Type
   903 ;;		None
   904 ;; Auto vars:     Size  Location     Type
   905 ;;		None
   906 ;; Return value:  Size  Location     Type
   907 ;;                  1    wreg      void 
   908 ;; Registers used:
   909 ;;		wreg, fsr0l, fsr0h, status,2, status,0, btemp+1, pclath, cstack
   910 ;; Tracked objects:
   911 ;;		On entry : B00/0
   912 ;;		On exit  : 0/0
   913 ;;		Unchanged: 0/0
   914 ;; Data sizes:     COMMON   BANK0   BANK1   BANK3   BANK2
   915 ;;      Params:         0       0       0       0       0
   916 ;;      Locals:         0       0       0       0       0
   917 ;;      Temps:          0       3       0       0       0
   918 ;;      Totals:         0       3       0       0       0
   919 ;;Total ram usage:        3 bytes
   920 ;; Hardware stack levels required when called:    3
   921 ;; This function calls:
   922 ;;		_I2C_Master_Read
   923 ;;		_I2C_Master_Start
   924 ;;		_I2C_Master_Stop
   925 ;;		_I2C_Master_Write
   926 ;;		_Lcd_Clear
   927 ;;		_Lcd_Init
   928 ;;		_Lcd_Set_Cursor
   929 ;;		_Lcd_Write_Char
   930 ;;		_Lcd_Write_String
   931 ;;		_Temperatura
   932 ;;		_decimal
   933 ;;		_setup
   934 ;;		_voltaje
   935 ;; This function is called by:
   936 ;;		Startup code after reset
   937 ;; This function uses a non-reentrant model
   938 ;;
   939                           
   940                           
   941                           ;psect for function _main
   942  0055                     _main:
   943  0055                     l2298:	
   944                           ;incstack = 0
   945                           ; Regs used in _main: [wreg-fsr0h+status,2+status,0+btemp+1+pclath+cstack]
   946                           
   947                           
   948                           ;Master_04.c: 105:     setup();
   949  0055  120A  158A  22D2  120A  118A  	fcall	_setup
   950                           
   951                           ;Master_04.c: 106:     Lcd_Init();
   952  005A  120A  158A  23DE  120A  118A  	fcall	_Lcd_Init
   953                           
   954                           ;Master_04.c: 107:     Lcd_Clear();
   955  005F  120A  158A  2274  120A  118A  	fcall	_Lcd_Clear
   956                           
   957                           ;Master_04.c: 108:     Lcd_Set_Cursor(1,1);
   958  0064  01F4               	clrf	Lcd_Set_Cursor@b
   959  0065  0AF4               	incf	Lcd_Set_Cursor@b,f
   960  0066  3001               	movlw	1
   961  0067  120A  118A  2003  120A  118A  	fcall	_Lcd_Set_Cursor
   962  006C                     l2300:
   963                           
   964                           ;Master_04.c: 109:     Lcd_Write_String("S1:   S2:   S3:");
   965  006C  3001               	movlw	(low ((STR_1-__stringbase)| (0+32768)))& (0+255)
   966  006D  120A  158A  22F5  120A  118A  	fcall	_Lcd_Write_String
   967  0072                     l2302:
   968                           
   969                           ;Master_04.c: 110:     _delay((unsigned long)((100)*(4000000/4000000.0)));
   970  0072  3020               	movlw	32
   971  0073  1283               	bcf	3,5	;RP0=0, select bank0
   972  0074  1303               	bcf	3,6	;RP1=0, select bank0
   973  0075  00E0               	movwf	??_main
   974  0076                     u2877:
   975  0076  0BE0               	decfsz	??_main,f
   976  0077  2876               	goto	u2877
   977  0078  0000               	nop
   978  0079                     l2304:
   979                           
   980                           ;Master_04.c: 114:         I2C_Master_Start();
   981  0079  120A  158A  224B  120A  118A  	fcall	_I2C_Master_Start
   982  007E                     l2306:
   983                           
   984                           ;Master_04.c: 115:         I2C_Master_Write(0x61);
   985  007E  3061               	movlw	97
   986  007F  00F0               	movwf	I2C_Master_Write@d
   987  0080  3000               	movlw	0
   988  0081  00F1               	movwf	I2C_Master_Write@d+1
   989  0082  120A  158A  225D  120A  118A  	fcall	_I2C_Master_Write
   990  0087                     l2308:
   991                           
   992                           ;Master_04.c: 116:         sensor2 = I2C_Master_Read(0);
   993  0087  3000               	movlw	0
   994  0088  00F0               	movwf	I2C_Master_Read@a
   995  0089  00F1               	movwf	I2C_Master_Read@a+1
   996  008A  120A  158A  2341  120A  118A  	fcall	_I2C_Master_Read
   997  008F  0870               	movf	?_I2C_Master_Read,w
   998  0090  1283               	bcf	3,5	;RP0=0, select bank0
   999  0091  1303               	bcf	3,6	;RP1=0, select bank0
  1000  0092  00E0               	movwf	??_main
  1001  0093  0860               	movf	??_main,w
  1002  0094  00E5               	movwf	_sensor2
  1003  0095                     l2310:
  1004                           
  1005                           ;Master_04.c: 117:         I2C_Master_Stop();
  1006  0095  120A  158A  2254  120A  118A  	fcall	_I2C_Master_Stop
  1007  009A                     l2312:
  1008                           
  1009                           ;Master_04.c: 118:         _delay((unsigned long)((200)*(4000000/4000.0)));
  1010  009A  3002               	movlw	2
  1011  009B  1283               	bcf	3,5	;RP0=0, select bank0
  1012  009C  1303               	bcf	3,6	;RP1=0, select bank0
  1013  009D  00E2               	movwf	??_main+2
  1014  009E  3004               	movlw	4
  1015  009F  00E1               	movwf	??_main+1
  1016  00A0  30B9               	movlw	185
  1017  00A1  00E0               	movwf	??_main
  1018  00A2                     u2887:
  1019  00A2  0BE0               	decfsz	??_main,f
  1020  00A3  28A2               	goto	u2887
  1021  00A4  0BE1               	decfsz	??_main+1,f
  1022  00A5  28A2               	goto	u2887
  1023  00A6  0BE2               	decfsz	??_main+2,f
  1024  00A7  28A2               	goto	u2887
  1025  00A8  28A9               	nop2
  1026  00A9                     l2314:
  1027                           
  1028                           ;Master_04.c: 120:         I2C_Master_Start();
  1029  00A9  120A  158A  224B  120A  118A  	fcall	_I2C_Master_Start
  1030  00AE                     l2316:
  1031                           
  1032                           ;Master_04.c: 121:         I2C_Master_Write(0x51);
  1033  00AE  3051               	movlw	81
  1034  00AF  00F0               	movwf	I2C_Master_Write@d
  1035  00B0  3000               	movlw	0
  1036  00B1  00F1               	movwf	I2C_Master_Write@d+1
  1037  00B2  120A  158A  225D  120A  118A  	fcall	_I2C_Master_Write
  1038  00B7                     l2318:
  1039                           
  1040                           ;Master_04.c: 122:         POT = I2C_Master_Read(0);
  1041  00B7  3000               	movlw	0
  1042  00B8  00F0               	movwf	I2C_Master_Read@a
  1043  00B9  00F1               	movwf	I2C_Master_Read@a+1
  1044  00BA  120A  158A  2341  120A  118A  	fcall	_I2C_Master_Read
  1045  00BF  0870               	movf	?_I2C_Master_Read,w
  1046  00C0  1283               	bcf	3,5	;RP0=0, select bank0
  1047  00C1  1303               	bcf	3,6	;RP1=0, select bank0
  1048  00C2  00E0               	movwf	??_main
  1049  00C3  0860               	movf	??_main,w
  1050  00C4  00E8               	movwf	_POT
  1051  00C5                     l2320:
  1052                           
  1053                           ;Master_04.c: 123:         I2C_Master_Stop();
  1054  00C5  120A  158A  2254  120A  118A  	fcall	_I2C_Master_Stop
  1055  00CA                     l2322:
  1056                           
  1057                           ;Master_04.c: 124:         _delay((unsigned long)((200)*(4000000/4000.0)));
  1058  00CA  3002               	movlw	2
  1059  00CB  1283               	bcf	3,5	;RP0=0, select bank0
  1060  00CC  1303               	bcf	3,6	;RP1=0, select bank0
  1061  00CD  00E2               	movwf	??_main+2
  1062  00CE  3004               	movlw	4
  1063  00CF  00E1               	movwf	??_main+1
  1064  00D0  30B9               	movlw	185
  1065  00D1  00E0               	movwf	??_main
  1066  00D2                     u2897:
  1067  00D2  0BE0               	decfsz	??_main,f
  1068  00D3  28D2               	goto	u2897
  1069  00D4  0BE1               	decfsz	??_main+1,f
  1070  00D5  28D2               	goto	u2897
  1071  00D6  0BE2               	decfsz	??_main+2,f
  1072  00D7  28D2               	goto	u2897
  1073  00D8  28D9               	nop2
  1074  00D9                     l2324:
  1075                           
  1076                           ;Master_04.c: 127:         I2C_Master_Start();
  1077  00D9  120A  158A  224B  120A  118A  	fcall	_I2C_Master_Start
  1078  00DE                     l2326:
  1079                           
  1080                           ;Master_04.c: 128:         I2C_Master_Write(0x80);
  1081  00DE  3080               	movlw	128
  1082  00DF  00F0               	movwf	I2C_Master_Write@d
  1083  00E0  3000               	movlw	0
  1084  00E1  00F1               	movwf	I2C_Master_Write@d+1
  1085  00E2  120A  158A  225D  120A  118A  	fcall	_I2C_Master_Write
  1086  00E7                     l2328:
  1087                           
  1088                           ;Master_04.c: 129:         I2C_Master_Write(0xF3);
  1089  00E7  30F3               	movlw	243
  1090  00E8  00F0               	movwf	I2C_Master_Write@d
  1091  00E9  3000               	movlw	0
  1092  00EA  00F1               	movwf	I2C_Master_Write@d+1
  1093  00EB  120A  158A  225D  120A  118A  	fcall	_I2C_Master_Write
  1094  00F0                     l2330:
  1095                           
  1096                           ;Master_04.c: 130:         I2C_Master_Stop();
  1097  00F0  120A  158A  2254  120A  118A  	fcall	_I2C_Master_Stop
  1098  00F5                     l2332:
  1099                           
  1100                           ;Master_04.c: 131:         _delay((unsigned long)((200)*(4000000/4000.0)));
  1101  00F5  3002               	movlw	2
  1102  00F6  1283               	bcf	3,5	;RP0=0, select bank0
  1103  00F7  1303               	bcf	3,6	;RP1=0, select bank0
  1104  00F8  00E2               	movwf	??_main+2
  1105  00F9  3004               	movlw	4
  1106  00FA  00E1               	movwf	??_main+1
  1107  00FB  30B9               	movlw	185
  1108  00FC  00E0               	movwf	??_main
  1109  00FD                     u2907:
  1110  00FD  0BE0               	decfsz	??_main,f
  1111  00FE  28FD               	goto	u2907
  1112  00FF  0BE1               	decfsz	??_main+1,f
  1113  0100  28FD               	goto	u2907
  1114  0101  0BE2               	decfsz	??_main+2,f
  1115  0102  28FD               	goto	u2907
  1116  0103  2904               	nop2
  1117  0104                     l2334:
  1118                           
  1119                           ;Master_04.c: 133:         I2C_Master_Start();
  1120  0104  120A  158A  224B  120A  118A  	fcall	_I2C_Master_Start
  1121  0109                     l2336:
  1122                           
  1123                           ;Master_04.c: 134:         I2C_Master_Write(0x81);
  1124  0109  3081               	movlw	129
  1125  010A  00F0               	movwf	I2C_Master_Write@d
  1126  010B  3000               	movlw	0
  1127  010C  00F1               	movwf	I2C_Master_Write@d+1
  1128  010D  120A  158A  225D  120A  118A  	fcall	_I2C_Master_Write
  1129  0112                     l2338:
  1130                           
  1131                           ;Master_04.c: 135:         TEMP = I2C_Master_Read(0);
  1132  0112  3000               	movlw	0
  1133  0113  00F0               	movwf	I2C_Master_Read@a
  1134  0114  00F1               	movwf	I2C_Master_Read@a+1
  1135  0115  120A  158A  2341  120A  118A  	fcall	_I2C_Master_Read
  1136  011A  0870               	movf	?_I2C_Master_Read,w
  1137  011B  1283               	bcf	3,5	;RP0=0, select bank0
  1138  011C  1303               	bcf	3,6	;RP1=0, select bank0
  1139  011D  00E0               	movwf	??_main
  1140  011E  0860               	movf	??_main,w
  1141  011F  00E7               	movwf	_TEMP
  1142  0120                     l2340:
  1143                           
  1144                           ;Master_04.c: 136:         I2C_Master_Stop();
  1145  0120  120A  158A  2254  120A  118A  	fcall	_I2C_Master_Stop
  1146  0125                     l2342:
  1147                           
  1148                           ;Master_04.c: 137:         _delay((unsigned long)((200)*(4000000/4000.0)));
  1149  0125  3002               	movlw	2
  1150  0126  1283               	bcf	3,5	;RP0=0, select bank0
  1151  0127  1303               	bcf	3,6	;RP1=0, select bank0
  1152  0128  00E2               	movwf	??_main+2
  1153  0129  3004               	movlw	4
  1154  012A  00E1               	movwf	??_main+1
  1155  012B  30B9               	movlw	185
  1156  012C  00E0               	movwf	??_main
  1157  012D                     u2917:
  1158  012D  0BE0               	decfsz	??_main,f
  1159  012E  292D               	goto	u2917
  1160  012F  0BE1               	decfsz	??_main+1,f
  1161  0130  292D               	goto	u2917
  1162  0131  0BE2               	decfsz	??_main+2,f
  1163  0132  292D               	goto	u2917
  1164  0133  2934               	nop2
  1165  0134                     l2344:
  1166                           
  1167                           ;Master_04.c: 140:         voltaje(POT);
  1168  0134  1283               	bcf	3,5	;RP0=0, select bank0
  1169  0135  1303               	bcf	3,6	;RP1=0, select bank0
  1170  0136  0868               	movf	_POT,w
  1171  0137  120A  158A  25E7  120A  118A  	fcall	_voltaje
  1172  013C                     l2346:
  1173                           
  1174                           ;Master_04.c: 141:         Lcd_Set_Cursor(2,1);
  1175  013C  01F4               	clrf	Lcd_Set_Cursor@b
  1176  013D  0AF4               	incf	Lcd_Set_Cursor@b,f
  1177  013E  3002               	movlw	2
  1178  013F  120A  118A  2003  120A  118A  	fcall	_Lcd_Set_Cursor
  1179  0144                     l2348:
  1180                           
  1181                           ;Master_04.c: 142:         Lcd_Write_Char(cen);
  1182  0144  1283               	bcf	3,5	;RP0=0, select bank0
  1183  0145  1303               	bcf	3,6	;RP1=0, select bank0
  1184  0146  0869               	movf	_cen,w
  1185  0147  120A  158A  236F  120A  118A  	fcall	_Lcd_Write_Char
  1186  014C                     l2350:
  1187                           
  1188                           ;Master_04.c: 143:         Lcd_Write_String(".");
  1189  014C  3017               	movlw	(low ((STR_2-__stringbase)| (0+32768)))& (0+255)
  1190  014D  120A  158A  22F5  120A  118A  	fcall	_Lcd_Write_String
  1191  0152                     l2352:
  1192                           
  1193                           ;Master_04.c: 144:         Lcd_Write_Char(dec);
  1194  0152  1283               	bcf	3,5	;RP0=0, select bank0
  1195  0153  1303               	bcf	3,6	;RP1=0, select bank0
  1196  0154  086A               	movf	_dec,w
  1197  0155  120A  158A  236F  120A  118A  	fcall	_Lcd_Write_Char
  1198  015A                     l2354:
  1199                           
  1200                           ;Master_04.c: 145:         Lcd_Write_Char(un);
  1201  015A  1283               	bcf	3,5	;RP0=0, select bank0
  1202  015B  1303               	bcf	3,6	;RP1=0, select bank0
  1203  015C  086B               	movf	_un,w
  1204  015D  120A  158A  236F  120A  118A  	fcall	_Lcd_Write_Char
  1205  0162                     l2356:
  1206                           
  1207                           ;Master_04.c: 146:         Lcd_Write_String("  ");
  1208  0162  3011               	movlw	(low ((STR_3-__stringbase)| (0+32768)))& (0+255)
  1209  0163  120A  158A  22F5  120A  118A  	fcall	_Lcd_Write_String
  1210  0168                     l2358:
  1211                           
  1212                           ;Master_04.c: 147:         _delay((unsigned long)((200)*(4000000/4000.0)));
  1213  0168  3002               	movlw	2
  1214  0169  1283               	bcf	3,5	;RP0=0, select bank0
  1215  016A  1303               	bcf	3,6	;RP1=0, select bank0
  1216  016B  00E2               	movwf	??_main+2
  1217  016C  3004               	movlw	4
  1218  016D  00E1               	movwf	??_main+1
  1219  016E  30B9               	movlw	185
  1220  016F  00E0               	movwf	??_main
  1221  0170                     u2927:
  1222  0170  0BE0               	decfsz	??_main,f
  1223  0171  2970               	goto	u2927
  1224  0172  0BE1               	decfsz	??_main+1,f
  1225  0173  2970               	goto	u2927
  1226  0174  0BE2               	decfsz	??_main+2,f
  1227  0175  2970               	goto	u2927
  1228  0176  2977               	nop2
  1229  0177                     l2360:
  1230                           
  1231                           ;Master_04.c: 150:         Lcd_Set_Cursor(2,8);
  1232  0177  3008               	movlw	8
  1233  0178  1283               	bcf	3,5	;RP0=0, select bank0
  1234  0179  1303               	bcf	3,6	;RP1=0, select bank0
  1235  017A  00E0               	movwf	??_main
  1236  017B  0860               	movf	??_main,w
  1237  017C  00F4               	movwf	Lcd_Set_Cursor@b
  1238  017D  3002               	movlw	2
  1239  017E  120A  118A  2003  120A  118A  	fcall	_Lcd_Set_Cursor
  1240  0183                     l2362:
  1241                           
  1242                           ;Master_04.c: 151:         decimal(sensor2);
  1243  0183  1283               	bcf	3,5	;RP0=0, select bank0
  1244  0184  1303               	bcf	3,6	;RP1=0, select bank0
  1245  0185  0865               	movf	_sensor2,w
  1246  0186  120A  158A  243B  120A  118A  	fcall	_decimal
  1247  018B                     l2364:
  1248                           
  1249                           ;Master_04.c: 152:         Lcd_Write_Char(dec);
  1250  018B  1283               	bcf	3,5	;RP0=0, select bank0
  1251  018C  1303               	bcf	3,6	;RP1=0, select bank0
  1252  018D  086A               	movf	_dec,w
  1253  018E  120A  158A  236F  120A  118A  	fcall	_Lcd_Write_Char
  1254  0193                     l2366:
  1255                           
  1256                           ;Master_04.c: 153:         Lcd_Set_Cursor(2,9);
  1257  0193  3009               	movlw	9
  1258  0194  1283               	bcf	3,5	;RP0=0, select bank0
  1259  0195  1303               	bcf	3,6	;RP1=0, select bank0
  1260  0196  00E0               	movwf	??_main
  1261  0197  0860               	movf	??_main,w
  1262  0198  00F4               	movwf	Lcd_Set_Cursor@b
  1263  0199  3002               	movlw	2
  1264  019A  120A  118A  2003  120A  118A  	fcall	_Lcd_Set_Cursor
  1265  019F                     l2368:
  1266                           
  1267                           ;Master_04.c: 154:         Lcd_Write_Char(un);
  1268  019F  1283               	bcf	3,5	;RP0=0, select bank0
  1269  01A0  1303               	bcf	3,6	;RP1=0, select bank0
  1270  01A1  086B               	movf	_un,w
  1271  01A2  120A  158A  236F  120A  118A  	fcall	_Lcd_Write_Char
  1272  01A7                     l2370:
  1273                           
  1274                           ;Master_04.c: 157:         Lcd_Set_Cursor(2,13);
  1275  01A7  300D               	movlw	13
  1276  01A8  1283               	bcf	3,5	;RP0=0, select bank0
  1277  01A9  1303               	bcf	3,6	;RP1=0, select bank0
  1278  01AA  00E0               	movwf	??_main
  1279  01AB  0860               	movf	??_main,w
  1280  01AC  00F4               	movwf	Lcd_Set_Cursor@b
  1281  01AD  3002               	movlw	2
  1282  01AE  120A  118A  2003  120A  118A  	fcall	_Lcd_Set_Cursor
  1283  01B3                     l2372:
  1284                           
  1285                           ;Master_04.c: 158:         Temperatura(TEMP);
  1286  01B3  1283               	bcf	3,5	;RP0=0, select bank0
  1287  01B4  1303               	bcf	3,6	;RP1=0, select bank0
  1288  01B5  0867               	movf	_TEMP,w
  1289  01B6  120A  158A  268D  120A  118A  	fcall	_Temperatura
  1290  01BB                     l2374:
  1291                           
  1292                           ;Master_04.c: 159:         Lcd_Write_Char(cen);
  1293  01BB  1283               	bcf	3,5	;RP0=0, select bank0
  1294  01BC  1303               	bcf	3,6	;RP1=0, select bank0
  1295  01BD  0869               	movf	_cen,w
  1296  01BE  120A  158A  236F  120A  118A  	fcall	_Lcd_Write_Char
  1297  01C3                     l2376:
  1298                           
  1299                           ;Master_04.c: 160:         Lcd_Write_Char(dec);
  1300  01C3  1283               	bcf	3,5	;RP0=0, select bank0
  1301  01C4  1303               	bcf	3,6	;RP1=0, select bank0
  1302  01C5  086A               	movf	_dec,w
  1303  01C6  120A  158A  236F  120A  118A  	fcall	_Lcd_Write_Char
  1304  01CB                     l2378:
  1305                           
  1306                           ;Master_04.c: 161:         Lcd_Write_Char(un);
  1307  01CB  1283               	bcf	3,5	;RP0=0, select bank0
  1308  01CC  1303               	bcf	3,6	;RP1=0, select bank0
  1309  01CD  086B               	movf	_un,w
  1310  01CE  120A  158A  236F  120A  118A  	fcall	_Lcd_Write_Char
  1311                           
  1312                           ;Master_04.c: 162:         Lcd_Write_String("C ");
  1313  01D3  3014               	movlw	(low ((STR_4-__stringbase)| (0+32768)))& (0+255)
  1314  01D4  120A  158A  22F5  120A  118A  	fcall	_Lcd_Write_String
  1315  01D9                     l2380:
  1316                           
  1317                           ;Master_04.c: 163:         _delay((unsigned long)((200)*(4000000/4000.0)));
  1318  01D9  3002               	movlw	2
  1319  01DA  1283               	bcf	3,5	;RP0=0, select bank0
  1320  01DB  1303               	bcf	3,6	;RP1=0, select bank0
  1321  01DC  00E2               	movwf	??_main+2
  1322  01DD  3004               	movlw	4
  1323  01DE  00E1               	movwf	??_main+1
  1324  01DF  30B9               	movlw	185
  1325  01E0  00E0               	movwf	??_main
  1326  01E1                     u2937:
  1327  01E1  0BE0               	decfsz	??_main,f
  1328  01E2  29E1               	goto	u2937
  1329  01E3  0BE1               	decfsz	??_main+1,f
  1330  01E4  29E1               	goto	u2937
  1331  01E5  0BE2               	decfsz	??_main+2,f
  1332  01E6  29E1               	goto	u2937
  1333  01E7  29E8               	nop2
  1334  01E8                     l2382:
  1335                           
  1336                           ;Master_04.c: 165:         PORTB = POT;
  1337  01E8  1283               	bcf	3,5	;RP0=0, select bank0
  1338  01E9  1303               	bcf	3,6	;RP1=0, select bank0
  1339  01EA  0868               	movf	_POT,w
  1340  01EB  0086               	movwf	6	;volatile
  1341  01EC                     l2384:
  1342                           
  1343                           ;Master_04.c: 166:         PORTA = TEMP;
  1344  01EC  0867               	movf	_TEMP,w
  1345  01ED  0085               	movwf	5	;volatile
  1346  01EE                     l2386:
  1347                           
  1348                           ;Master_04.c: 167:         _delay((unsigned long)((200)*(4000000/4000.0)));
  1349  01EE  3002               	movlw	2
  1350  01EF  1283               	bcf	3,5	;RP0=0, select bank0
  1351  01F0  1303               	bcf	3,6	;RP1=0, select bank0
  1352  01F1  00E2               	movwf	??_main+2
  1353  01F2  3004               	movlw	4
  1354  01F3  00E1               	movwf	??_main+1
  1355  01F4  30B9               	movlw	185
  1356  01F5  00E0               	movwf	??_main
  1357  01F6                     u2947:
  1358  01F6  0BE0               	decfsz	??_main,f
  1359  01F7  29F6               	goto	u2947
  1360  01F8  0BE1               	decfsz	??_main+1,f
  1361  01F9  29F6               	goto	u2947
  1362  01FA  0BE2               	decfsz	??_main+2,f
  1363  01FB  29F6               	goto	u2947
  1364  01FC  29FD               	nop2
  1365  01FD  2879               	goto	l2304
  1366  01FE  120A  118A  2800   	ljmp	start
  1367  0201                     __end_of_main:
  1368                           
  1369                           	psect	text1
  1370  0DE7                     __ptext1:	
  1371 ;; *************** function _voltaje *****************
  1372 ;; Defined at:
  1373 ;;		line 188 in file "Master_04.c"
  1374 ;; Parameters:    Size  Location     Type
  1375 ;;  var             1    wreg     unsigned char 
  1376 ;; Auto vars:     Size  Location     Type
  1377 ;;  var             1   62[BANK0 ] unsigned char 
  1378 ;;  VAL             1   63[BANK0 ] unsigned char 
  1379 ;; Return value:  Size  Location     Type
  1380 ;;                  1    wreg      void 
  1381 ;; Registers used:
  1382 ;;		wreg, status,2, status,0, btemp+1, pclath, cstack
  1383 ;; Tracked objects:
  1384 ;;		On entry : 0/0
  1385 ;;		On exit  : 0/0
  1386 ;;		Unchanged: 0/0
  1387 ;; Data sizes:     COMMON   BANK0   BANK1   BANK3   BANK2
  1388 ;;      Params:         0       0       0       0       0
  1389 ;;      Locals:         0       2       0       0       0
  1390 ;;      Temps:          0       5       0       0       0
  1391 ;;      Totals:         0       7       0       0       0
  1392 ;;Total ram usage:        7 bytes
  1393 ;; Hardware stack levels used:    1
  1394 ;; Hardware stack levels required when called:    2
  1395 ;; This function calls:
  1396 ;;		___awdiv
  1397 ;;		___bmul
  1398 ;;		___flmul
  1399 ;;		___fltol
  1400 ;;		___xxtofl
  1401 ;; This function is called by:
  1402 ;;		_main
  1403 ;; This function uses a non-reentrant model
  1404 ;;
  1405                           
  1406                           
  1407                           ;psect for function _voltaje
  1408  0DE7                     _voltaje:
  1409                           
  1410                           ;incstack = 0
  1411                           ; Regs used in _voltaje: [wreg+status,2+status,0+btemp+1+pclath+cstack]
  1412                           ;voltaje@var stored from wreg
  1413  0DE7  1283               	bcf	3,5	;RP0=0, select bank0
  1414  0DE8  1303               	bcf	3,6	;RP1=0, select bank0
  1415  0DE9  00DE               	movwf	voltaje@var
  1416  0DEA                     l2244:
  1417                           
  1418                           ;Master_04.c: 189:     uint8_t VAL;;Master_04.c: 190:     VAL = var;
  1419  0DEA  085E               	movf	voltaje@var,w
  1420  0DEB  00D9               	movwf	??_voltaje
  1421  0DEC  0859               	movf	??_voltaje,w
  1422  0DED  00DF               	movwf	voltaje@VAL
  1423  0DEE                     l2246:
  1424                           
  1425                           ;Master_04.c: 191:     VAL = (VAL*1.96);
  1426  0DEE  085F               	movf	voltaje@VAL,w
  1427  0DEF  00D9               	movwf	??_voltaje
  1428  0DF0  01DA               	clrf	??_voltaje+1
  1429  0DF1  01DB               	clrf	??_voltaje+2
  1430  0DF2  01DC               	clrf	??_voltaje+3
  1431  0DF3  085C               	movf	??_voltaje+3,w
  1432  0DF4  00F3               	movwf	___xxtofl@val+3
  1433  0DF5  085B               	movf	??_voltaje+2,w
  1434  0DF6  00F2               	movwf	___xxtofl@val+2
  1435  0DF7  085A               	movf	??_voltaje+1,w
  1436  0DF8  00F1               	movwf	___xxtofl@val+1
  1437  0DF9  0859               	movf	??_voltaje,w
  1438  0DFA  00F0               	movwf	___xxtofl@val
  1439  0DFB  3001               	movlw	1
  1440  0DFC  120A  158A  2746  120A  158A  	fcall	___xxtofl
  1441  0E01  0873               	movf	?___xxtofl+3,w
  1442  0E02  1283               	bcf	3,5	;RP0=0, select bank0
  1443  0E03  1303               	bcf	3,6	;RP1=0, select bank0
  1444  0E04  00A7               	movwf	___flmul@a+3
  1445  0E05  0872               	movf	?___xxtofl+2,w
  1446  0E06  00A6               	movwf	___flmul@a+2
  1447  0E07  0871               	movf	?___xxtofl+1,w
  1448  0E08  00A5               	movwf	___flmul@a+1
  1449  0E09  0870               	movf	?___xxtofl,w
  1450  0E0A  00A4               	movwf	___flmul@a
  1451  0E0B  303F               	movlw	63
  1452  0E0C  00A3               	movwf	___flmul@b+3
  1453  0E0D  30FA               	movlw	250
  1454  0E0E  00A2               	movwf	___flmul@b+2
  1455  0E0F  30E1               	movlw	225
  1456  0E10  00A1               	movwf	___flmul@b+1
  1457  0E11  3048               	movlw	72
  1458  0E12  00A0               	movwf	___flmul@b
  1459  0E13  120A  118A  2489  120A  158A  	fcall	___flmul
  1460  0E18  1283               	bcf	3,5	;RP0=0, select bank0
  1461  0E19  1303               	bcf	3,6	;RP1=0, select bank0
  1462  0E1A  0823               	movf	?___flmul+3,w
  1463  0E1B  00D1               	movwf	___fltol@f1+3
  1464  0E1C  0822               	movf	?___flmul+2,w
  1465  0E1D  00D0               	movwf	___fltol@f1+2
  1466  0E1E  0821               	movf	?___flmul+1,w
  1467  0E1F  00CF               	movwf	___fltol@f1+1
  1468  0E20  0820               	movf	?___flmul,w
  1469  0E21  00CE               	movwf	___fltol@f1
  1470  0E22  120A  158A  256B  120A  158A  	fcall	___fltol
  1471  0E27  1283               	bcf	3,5	;RP0=0, select bank0
  1472  0E28  1303               	bcf	3,6	;RP1=0, select bank0
  1473  0E29  084E               	movf	?___fltol,w
  1474  0E2A  00DD               	movwf	??_voltaje+4
  1475  0E2B  085D               	movf	??_voltaje+4,w
  1476  0E2C  00DF               	movwf	voltaje@VAL
  1477  0E2D                     l2248:
  1478                           
  1479                           ;Master_04.c: 192:     cen = (VAL/100) ;
  1480  0E2D  3064               	movlw	100
  1481  0E2E  00F0               	movwf	___awdiv@divisor
  1482  0E2F  3000               	movlw	0
  1483  0E30  00F1               	movwf	___awdiv@divisor+1
  1484  0E31  085F               	movf	voltaje@VAL,w
  1485  0E32  00D9               	movwf	??_voltaje
  1486  0E33  01DA               	clrf	??_voltaje+1
  1487  0E34  0859               	movf	??_voltaje,w
  1488  0E35  00F2               	movwf	___awdiv@dividend
  1489  0E36  085A               	movf	??_voltaje+1,w
  1490  0E37  00F3               	movwf	___awdiv@dividend+1
  1491  0E38  120A  158A  2504  120A  158A  	fcall	___awdiv
  1492  0E3D  0870               	movf	?___awdiv,w
  1493  0E3E  1283               	bcf	3,5	;RP0=0, select bank0
  1494  0E3F  1303               	bcf	3,6	;RP1=0, select bank0
  1495  0E40  00DB               	movwf	??_voltaje+2
  1496  0E41  085B               	movf	??_voltaje+2,w
  1497  0E42  00E9               	movwf	_cen
  1498  0E43                     l2250:
  1499                           
  1500                           ;Master_04.c: 193:     VAL = (VAL - (cen*100));
  1501  0E43  309C               	movlw	156
  1502  0E44  00D9               	movwf	??_voltaje
  1503  0E45  0859               	movf	??_voltaje,w
  1504  0E46  00F0               	movwf	___bmul@multiplicand
  1505  0E47  0869               	movf	_cen,w
  1506  0E48  120A  158A  2281  120A  158A  	fcall	___bmul
  1507  0E4D  1283               	bcf	3,5	;RP0=0, select bank0
  1508  0E4E  1303               	bcf	3,6	;RP1=0, select bank0
  1509  0E4F  075F               	addwf	voltaje@VAL,w
  1510  0E50  00DA               	movwf	??_voltaje+1
  1511  0E51  085A               	movf	??_voltaje+1,w
  1512  0E52  00DF               	movwf	voltaje@VAL
  1513  0E53                     l2252:
  1514                           
  1515                           ;Master_04.c: 194:     dec = (VAL/10);
  1516  0E53  300A               	movlw	10
  1517  0E54  00F0               	movwf	___awdiv@divisor
  1518  0E55  3000               	movlw	0
  1519  0E56  00F1               	movwf	___awdiv@divisor+1
  1520  0E57  085F               	movf	voltaje@VAL,w
  1521  0E58  00D9               	movwf	??_voltaje
  1522  0E59  01DA               	clrf	??_voltaje+1
  1523  0E5A  0859               	movf	??_voltaje,w
  1524  0E5B  00F2               	movwf	___awdiv@dividend
  1525  0E5C  085A               	movf	??_voltaje+1,w
  1526  0E5D  00F3               	movwf	___awdiv@dividend+1
  1527  0E5E  120A  158A  2504  120A  158A  	fcall	___awdiv
  1528  0E63  0870               	movf	?___awdiv,w
  1529  0E64  1283               	bcf	3,5	;RP0=0, select bank0
  1530  0E65  1303               	bcf	3,6	;RP1=0, select bank0
  1531  0E66  00DB               	movwf	??_voltaje+2
  1532  0E67  085B               	movf	??_voltaje+2,w
  1533  0E68  00EA               	movwf	_dec
  1534  0E69                     l2254:
  1535                           
  1536                           ;Master_04.c: 195:     VAL = (VAL - (dec*10));
  1537  0E69  30F6               	movlw	246
  1538  0E6A  00D9               	movwf	??_voltaje
  1539  0E6B  0859               	movf	??_voltaje,w
  1540  0E6C  00F0               	movwf	___bmul@multiplicand
  1541  0E6D  086A               	movf	_dec,w
  1542  0E6E  120A  158A  2281  120A  158A  	fcall	___bmul
  1543  0E73  1283               	bcf	3,5	;RP0=0, select bank0
  1544  0E74  1303               	bcf	3,6	;RP1=0, select bank0
  1545  0E75  075F               	addwf	voltaje@VAL,w
  1546  0E76  00DA               	movwf	??_voltaje+1
  1547  0E77  085A               	movf	??_voltaje+1,w
  1548  0E78  00DF               	movwf	voltaje@VAL
  1549  0E79                     l2256:
  1550                           
  1551                           ;Master_04.c: 196:     un = (VAL);
  1552  0E79  085F               	movf	voltaje@VAL,w
  1553  0E7A  00D9               	movwf	??_voltaje
  1554  0E7B  0859               	movf	??_voltaje,w
  1555  0E7C  00EB               	movwf	_un
  1556  0E7D                     l2258:
  1557                           
  1558                           ;Master_04.c: 198:     cen = cen + 48;
  1559  0E7D  0869               	movf	_cen,w
  1560  0E7E  3E30               	addlw	48
  1561  0E7F  00D9               	movwf	??_voltaje
  1562  0E80  0859               	movf	??_voltaje,w
  1563  0E81  00E9               	movwf	_cen
  1564  0E82                     l2260:
  1565                           
  1566                           ;Master_04.c: 199:     dec = dec + 48;
  1567  0E82  086A               	movf	_dec,w
  1568  0E83  3E30               	addlw	48
  1569  0E84  00D9               	movwf	??_voltaje
  1570  0E85  0859               	movf	??_voltaje,w
  1571  0E86  00EA               	movwf	_dec
  1572  0E87                     l2262:
  1573                           
  1574                           ;Master_04.c: 200:     un = un + 48;
  1575  0E87  086B               	movf	_un,w
  1576  0E88  3E30               	addlw	48
  1577  0E89  00D9               	movwf	??_voltaje
  1578  0E8A  0859               	movf	??_voltaje,w
  1579  0E8B  00EB               	movwf	_un
  1580  0E8C                     l81:
  1581  0E8C  0008               	return
  1582  0E8D                     __end_of_voltaje:
  1583                           
  1584                           	psect	text2
  1585  0AD2                     __ptext2:	
  1586 ;; *************** function _setup *****************
  1587 ;; Defined at:
  1588 ;;		line 81 in file "Master_04.c"
  1589 ;; Parameters:    Size  Location     Type
  1590 ;;		None
  1591 ;; Auto vars:     Size  Location     Type
  1592 ;;		None
  1593 ;; Return value:  Size  Location     Type
  1594 ;;                  1    wreg      void 
  1595 ;; Registers used:
  1596 ;;		wreg, status,2, status,0, pclath, cstack
  1597 ;; Tracked objects:
  1598 ;;		On entry : 0/0
  1599 ;;		On exit  : 0/0
  1600 ;;		Unchanged: 0/0
  1601 ;; Data sizes:     COMMON   BANK0   BANK1   BANK3   BANK2
  1602 ;;      Params:         0       0       0       0       0
  1603 ;;      Locals:         0       0       0       0       0
  1604 ;;      Temps:          0       0       0       0       0
  1605 ;;      Totals:         0       0       0       0       0
  1606 ;;Total ram usage:        0 bytes
  1607 ;; Hardware stack levels used:    1
  1608 ;; Hardware stack levels required when called:    2
  1609 ;; This function calls:
  1610 ;;		_I2C_Master_Init
  1611 ;; This function is called by:
  1612 ;;		_main
  1613 ;; This function uses a non-reentrant model
  1614 ;;
  1615                           
  1616                           
  1617                           ;psect for function _setup
  1618  0AD2                     _setup:
  1619  0AD2                     l2164:	
  1620                           ;incstack = 0
  1621                           ; Regs used in _setup: [wreg+status,2+status,0+pclath+cstack]
  1622                           
  1623                           
  1624                           ;Master_04.c: 83:     ANSELH = 0x00;
  1625  0AD2  1683               	bsf	3,5	;RP0=1, select bank3
  1626  0AD3  1703               	bsf	3,6	;RP1=1, select bank3
  1627  0AD4  0189               	clrf	9	;volatile
  1628                           
  1629                           ;Master_04.c: 84:     TRISD = 0X00;
  1630  0AD5  1683               	bsf	3,5	;RP0=1, select bank1
  1631  0AD6  1303               	bcf	3,6	;RP1=0, select bank1
  1632  0AD7  0188               	clrf	8	;volatile
  1633                           
  1634                           ;Master_04.c: 85:     TRISE = 0x00;
  1635  0AD8  0189               	clrf	9	;volatile
  1636                           
  1637                           ;Master_04.c: 87:     PORTA = 0X00;
  1638  0AD9  1283               	bcf	3,5	;RP0=0, select bank0
  1639  0ADA  1303               	bcf	3,6	;RP1=0, select bank0
  1640  0ADB  0185               	clrf	5	;volatile
  1641                           
  1642                           ;Master_04.c: 88:     PORTB = 0X00;
  1643  0ADC  0186               	clrf	6	;volatile
  1644                           
  1645                           ;Master_04.c: 89:     PORTC = 0X00;
  1646  0ADD  0187               	clrf	7	;volatile
  1647                           
  1648                           ;Master_04.c: 90:     PORTD = 0X00;
  1649  0ADE  0188               	clrf	8	;volatile
  1650  0ADF                     l2166:
  1651                           
  1652                           ;Master_04.c: 93:     OSCCONbits.SCS = 1;
  1653  0ADF  1683               	bsf	3,5	;RP0=1, select bank1
  1654  0AE0  1303               	bcf	3,6	;RP1=0, select bank1
  1655  0AE1  140F               	bsf	15,0	;volatile
  1656  0AE2                     l2168:
  1657                           
  1658                           ;Master_04.c: 94:     OSCCONbits.IRCF2 = 1;
  1659  0AE2  170F               	bsf	15,6	;volatile
  1660  0AE3                     l2170:
  1661                           
  1662                           ;Master_04.c: 95:     OSCCONbits.IRCF1 = 1;
  1663  0AE3  168F               	bsf	15,5	;volatile
  1664  0AE4                     l2172:
  1665                           
  1666                           ;Master_04.c: 96:     OSCCONbits.IRCF0 = 0;
  1667  0AE4  120F               	bcf	15,4	;volatile
  1668  0AE5                     l2174:
  1669                           
  1670                           ;Master_04.c: 99:     I2C_Master_Init(100000);
  1671  0AE5  3000               	movlw	0
  1672  0AE6  1283               	bcf	3,5	;RP0=0, select bank0
  1673  0AE7  1303               	bcf	3,6	;RP1=0, select bank0
  1674  0AE8  00A3               	movwf	I2C_Master_Init@c+3
  1675  0AE9  3001               	movlw	1
  1676  0AEA  00A2               	movwf	I2C_Master_Init@c+2
  1677  0AEB  3086               	movlw	134
  1678  0AEC  00A1               	movwf	I2C_Master_Init@c+1
  1679  0AED  30A0               	movlw	160
  1680  0AEE  00A0               	movwf	I2C_Master_Init@c
  1681  0AEF  120A  158A  23A6  120A  158A  	fcall	_I2C_Master_Init
  1682  0AF4                     l67:
  1683  0AF4  0008               	return
  1684  0AF5                     __end_of_setup:
  1685                           
  1686                           	psect	text3
  1687  0BA6                     __ptext3:	
  1688 ;; *************** function _I2C_Master_Init *****************
  1689 ;; Defined at:
  1690 ;;		line 17 in file "I2C.c"
  1691 ;; Parameters:    Size  Location     Type
  1692 ;;  c               4    0[BANK0 ] const unsigned long 
  1693 ;; Auto vars:     Size  Location     Type
  1694 ;;		None
  1695 ;; Return value:  Size  Location     Type
  1696 ;;                  1    wreg      void 
  1697 ;; Registers used:
  1698 ;;		wreg, status,2, status,0, pclath, cstack
  1699 ;; Tracked objects:
  1700 ;;		On entry : 0/0
  1701 ;;		On exit  : 0/0
  1702 ;;		Unchanged: 0/0
  1703 ;; Data sizes:     COMMON   BANK0   BANK1   BANK3   BANK2
  1704 ;;      Params:         0       4       0       0       0
  1705 ;;      Locals:         0       0       0       0       0
  1706 ;;      Temps:          0       4       0       0       0
  1707 ;;      Totals:         0       8       0       0       0
  1708 ;;Total ram usage:        8 bytes
  1709 ;; Hardware stack levels used:    1
  1710 ;; Hardware stack levels required when called:    1
  1711 ;; This function calls:
  1712 ;;		___lldiv
  1713 ;; This function is called by:
  1714 ;;		_setup
  1715 ;; This function uses a non-reentrant model
  1716 ;;
  1717                           
  1718                           
  1719                           ;psect for function _I2C_Master_Init
  1720  0BA6                     _I2C_Master_Init:
  1721  0BA6                     l1646:	
  1722                           ;incstack = 0
  1723                           ; Regs used in _I2C_Master_Init: [wreg+status,2+status,0+pclath+cstack]
  1724                           
  1725                           
  1726                           ;I2C.c: 17: void I2C_Master_Init(const unsigned long c);I2C.c: 18: {;I2C.c: 19:     SSPC
      +                          ON = 0b00101000;
  1727  0BA6  3028               	movlw	40
  1728  0BA7  1283               	bcf	3,5	;RP0=0, select bank0
  1729  0BA8  1303               	bcf	3,6	;RP1=0, select bank0
  1730  0BA9  0094               	movwf	20	;volatile
  1731  0BAA                     l1648:
  1732                           
  1733                           ;I2C.c: 20:     SSPCON2 = 0;
  1734  0BAA  1683               	bsf	3,5	;RP0=1, select bank1
  1735  0BAB  1303               	bcf	3,6	;RP1=0, select bank1
  1736  0BAC  0191               	clrf	17	;volatile
  1737  0BAD                     l1650:
  1738                           
  1739                           ;I2C.c: 21:     SSPADD = (4000000/(4*c))-1;
  1740  0BAD  1283               	bcf	3,5	;RP0=0, select bank0
  1741  0BAE  1303               	bcf	3,6	;RP1=0, select bank0
  1742  0BAF  0820               	movf	I2C_Master_Init@c,w
  1743  0BB0  00A4               	movwf	??_I2C_Master_Init
  1744  0BB1  0821               	movf	I2C_Master_Init@c+1,w
  1745  0BB2  00A5               	movwf	??_I2C_Master_Init+1
  1746  0BB3  0822               	movf	I2C_Master_Init@c+2,w
  1747  0BB4  00A6               	movwf	??_I2C_Master_Init+2
  1748  0BB5  0823               	movf	I2C_Master_Init@c+3,w
  1749  0BB6  00A7               	movwf	??_I2C_Master_Init+3
  1750  0BB7  3002               	movlw	2
  1751  0BB8                     u1585:
  1752  0BB8  1003               	clrc
  1753  0BB9  0DA4               	rlf	??_I2C_Master_Init,f
  1754  0BBA  0DA5               	rlf	??_I2C_Master_Init+1,f
  1755  0BBB  0DA6               	rlf	??_I2C_Master_Init+2,f
  1756  0BBC  0DA7               	rlf	??_I2C_Master_Init+3,f
  1757  0BBD                     u1580:
  1758  0BBD  3EFF               	addlw	-1
  1759  0BBE  1D03               	skipz
  1760  0BBF  2BB8               	goto	u1585
  1761  0BC0  0827               	movf	??_I2C_Master_Init+3,w
  1762  0BC1  00F3               	movwf	___lldiv@divisor+3
  1763  0BC2  0826               	movf	??_I2C_Master_Init+2,w
  1764  0BC3  00F2               	movwf	___lldiv@divisor+2
  1765  0BC4  0825               	movf	??_I2C_Master_Init+1,w
  1766  0BC5  00F1               	movwf	___lldiv@divisor+1
  1767  0BC6  0824               	movf	??_I2C_Master_Init,w
  1768  0BC7  00F0               	movwf	___lldiv@divisor
  1769  0BC8  3000               	movlw	0
  1770  0BC9  00F7               	movwf	___lldiv@dividend+3
  1771  0BCA  303D               	movlw	61
  1772  0BCB  00F6               	movwf	___lldiv@dividend+2
  1773  0BCC  3009               	movlw	9
  1774  0BCD  00F5               	movwf	___lldiv@dividend+1
  1775  0BCE  3000               	movlw	0
  1776  0BCF  00F4               	movwf	___lldiv@dividend
  1777  0BD0  120A  158A  249E  120A  158A  	fcall	___lldiv
  1778  0BD5  0870               	movf	?___lldiv,w
  1779  0BD6  3EFF               	addlw	255
  1780  0BD7  1683               	bsf	3,5	;RP0=1, select bank1
  1781  0BD8  1303               	bcf	3,6	;RP1=0, select bank1
  1782  0BD9  0093               	movwf	19	;volatile
  1783  0BDA                     l1652:
  1784                           
  1785                           ;I2C.c: 22:     SSPSTAT = 0;
  1786  0BDA  0194               	clrf	20	;volatile
  1787  0BDB                     l1654:
  1788                           
  1789                           ;I2C.c: 23:     TRISCbits.TRISC3 = 1;
  1790  0BDB  1587               	bsf	7,3	;volatile
  1791  0BDC                     l1656:
  1792                           
  1793                           ;I2C.c: 24:     TRISCbits.TRISC4 = 1;
  1794  0BDC  1607               	bsf	7,4	;volatile
  1795  0BDD                     l168:
  1796  0BDD  0008               	return
  1797  0BDE                     __end_of_I2C_Master_Init:
  1798                           
  1799                           	psect	text4
  1800  0C9E                     __ptext4:	
  1801 ;; *************** function ___lldiv *****************
  1802 ;; Defined at:
  1803 ;;		line 5 in file "C:\Program Files\Microchip\xc8\v2.31\pic\sources\c90\common\__lldiv.c"
  1804 ;; Parameters:    Size  Location     Type
  1805 ;;  divisor         4    0[COMMON] unsigned long 
  1806 ;;  dividend        4    4[COMMON] unsigned long 
  1807 ;; Auto vars:     Size  Location     Type
  1808 ;;  quotient        4    9[COMMON] unsigned long 
  1809 ;;  counter         1   13[COMMON] unsigned char 
  1810 ;; Return value:  Size  Location     Type
  1811 ;;                  4    0[COMMON] unsigned long 
  1812 ;; Registers used:
  1813 ;;		wreg, status,2, status,0
  1814 ;; Tracked objects:
  1815 ;;		On entry : 0/0
  1816 ;;		On exit  : 0/0
  1817 ;;		Unchanged: 0/0
  1818 ;; Data sizes:     COMMON   BANK0   BANK1   BANK3   BANK2
  1819 ;;      Params:         8       0       0       0       0
  1820 ;;      Locals:         5       0       0       0       0
  1821 ;;      Temps:          1       0       0       0       0
  1822 ;;      Totals:        14       0       0       0       0
  1823 ;;Total ram usage:       14 bytes
  1824 ;; Hardware stack levels used:    1
  1825 ;; This function calls:
  1826 ;;		Nothing
  1827 ;; This function is called by:
  1828 ;;		_I2C_Master_Init
  1829 ;; This function uses a non-reentrant model
  1830 ;;
  1831                           
  1832                           
  1833                           ;psect for function ___lldiv
  1834  0C9E                     ___lldiv:
  1835  0C9E                     l1608:	
  1836                           ;incstack = 0
  1837                           ; Regs used in ___lldiv: [wreg+status,2+status,0]
  1838                           
  1839  0C9E  3000               	movlw	0
  1840  0C9F  00FC               	movwf	___lldiv@quotient+3
  1841  0CA0  3000               	movlw	0
  1842  0CA1  00FB               	movwf	___lldiv@quotient+2
  1843  0CA2  3000               	movlw	0
  1844  0CA3  00FA               	movwf	___lldiv@quotient+1
  1845  0CA4  3000               	movlw	0
  1846  0CA5  00F9               	movwf	___lldiv@quotient
  1847  0CA6  0873               	movf	___lldiv@divisor+3,w
  1848  0CA7  0472               	iorwf	___lldiv@divisor+2,w
  1849  0CA8  0471               	iorwf	___lldiv@divisor+1,w
  1850  0CA9  0470               	iorwf	___lldiv@divisor,w
  1851  0CAA  1903               	skipnz
  1852  0CAB  2CAD               	goto	u1481
  1853  0CAC  2CAE               	goto	u1480
  1854  0CAD                     u1481:
  1855  0CAD  2CFB               	goto	l1628
  1856  0CAE                     u1480:
  1857  0CAE                     l1610:
  1858  0CAE  01FD               	clrf	___lldiv@counter
  1859  0CAF  0AFD               	incf	___lldiv@counter,f
  1860  0CB0  2CBE               	goto	l1614
  1861  0CB1                     l1612:
  1862  0CB1  3001               	movlw	1
  1863  0CB2  00F8               	movwf	??___lldiv
  1864  0CB3                     u1495:
  1865  0CB3  1003               	clrc
  1866  0CB4  0DF0               	rlf	___lldiv@divisor,f
  1867  0CB5  0DF1               	rlf	___lldiv@divisor+1,f
  1868  0CB6  0DF2               	rlf	___lldiv@divisor+2,f
  1869  0CB7  0DF3               	rlf	___lldiv@divisor+3,f
  1870  0CB8  0BF8               	decfsz	??___lldiv,f
  1871  0CB9  2CB3               	goto	u1495
  1872  0CBA  3001               	movlw	1
  1873  0CBB  00F8               	movwf	??___lldiv
  1874  0CBC  0878               	movf	??___lldiv,w
  1875  0CBD  07FD               	addwf	___lldiv@counter,f
  1876  0CBE                     l1614:
  1877  0CBE  1FF3               	btfss	___lldiv@divisor+3,7
  1878  0CBF  2CC1               	goto	u1501
  1879  0CC0  2CC2               	goto	u1500
  1880  0CC1                     u1501:
  1881  0CC1  2CB1               	goto	l1612
  1882  0CC2                     u1500:
  1883  0CC2                     l1616:
  1884  0CC2  3001               	movlw	1
  1885  0CC3  00F8               	movwf	??___lldiv
  1886  0CC4                     u1515:
  1887  0CC4  1003               	clrc
  1888  0CC5  0DF9               	rlf	___lldiv@quotient,f
  1889  0CC6  0DFA               	rlf	___lldiv@quotient+1,f
  1890  0CC7  0DFB               	rlf	___lldiv@quotient+2,f
  1891  0CC8  0DFC               	rlf	___lldiv@quotient+3,f
  1892  0CC9  0BF8               	decfsz	??___lldiv,f
  1893  0CCA  2CC4               	goto	u1515
  1894  0CCB                     l1618:
  1895  0CCB  0873               	movf	___lldiv@divisor+3,w
  1896  0CCC  0277               	subwf	___lldiv@dividend+3,w
  1897  0CCD  1D03               	skipz
  1898  0CCE  2CD9               	goto	u1525
  1899  0CCF  0872               	movf	___lldiv@divisor+2,w
  1900  0CD0  0276               	subwf	___lldiv@dividend+2,w
  1901  0CD1  1D03               	skipz
  1902  0CD2  2CD9               	goto	u1525
  1903  0CD3  0871               	movf	___lldiv@divisor+1,w
  1904  0CD4  0275               	subwf	___lldiv@dividend+1,w
  1905  0CD5  1D03               	skipz
  1906  0CD6  2CD9               	goto	u1525
  1907  0CD7  0870               	movf	___lldiv@divisor,w
  1908  0CD8  0274               	subwf	___lldiv@dividend,w
  1909  0CD9                     u1525:
  1910  0CD9  1C03               	skipc
  1911  0CDA  2CDC               	goto	u1521
  1912  0CDB  2CDD               	goto	u1520
  1913  0CDC                     u1521:
  1914  0CDC  2CEC               	goto	l1624
  1915  0CDD                     u1520:
  1916  0CDD                     l1620:
  1917  0CDD  0870               	movf	___lldiv@divisor,w
  1918  0CDE  02F4               	subwf	___lldiv@dividend,f
  1919  0CDF  0871               	movf	___lldiv@divisor+1,w
  1920  0CE0  1C03               	skipc
  1921  0CE1  0F71               	incfsz	___lldiv@divisor+1,w
  1922  0CE2  02F5               	subwf	___lldiv@dividend+1,f
  1923  0CE3  0872               	movf	___lldiv@divisor+2,w
  1924  0CE4  1C03               	skipc
  1925  0CE5  0F72               	incfsz	___lldiv@divisor+2,w
  1926  0CE6  02F6               	subwf	___lldiv@dividend+2,f
  1927  0CE7  0873               	movf	___lldiv@divisor+3,w
  1928  0CE8  1C03               	skipc
  1929  0CE9  0F73               	incfsz	___lldiv@divisor+3,w
  1930  0CEA  02F7               	subwf	___lldiv@dividend+3,f
  1931  0CEB                     l1622:
  1932  0CEB  1479               	bsf	___lldiv@quotient,0
  1933  0CEC                     l1624:
  1934  0CEC  3001               	movlw	1
  1935  0CED                     u1535:
  1936  0CED  1003               	clrc
  1937  0CEE  0CF3               	rrf	___lldiv@divisor+3,f
  1938  0CEF  0CF2               	rrf	___lldiv@divisor+2,f
  1939  0CF0  0CF1               	rrf	___lldiv@divisor+1,f
  1940  0CF1  0CF0               	rrf	___lldiv@divisor,f
  1941  0CF2  3EFF               	addlw	-1
  1942  0CF3  1D03               	skipz
  1943  0CF4  2CED               	goto	u1535
  1944  0CF5                     l1626:
  1945  0CF5  3001               	movlw	1
  1946  0CF6  02FD               	subwf	___lldiv@counter,f
  1947  0CF7  1D03               	btfss	3,2
  1948  0CF8  2CFA               	goto	u1541
  1949  0CF9  2CFB               	goto	u1540
  1950  0CFA                     u1541:
  1951  0CFA  2CC2               	goto	l1616
  1952  0CFB                     u1540:
  1953  0CFB                     l1628:
  1954  0CFB  087C               	movf	___lldiv@quotient+3,w
  1955  0CFC  00F3               	movwf	?___lldiv+3
  1956  0CFD  087B               	movf	___lldiv@quotient+2,w
  1957  0CFE  00F2               	movwf	?___lldiv+2
  1958  0CFF  087A               	movf	___lldiv@quotient+1,w
  1959  0D00  00F1               	movwf	?___lldiv+1
  1960  0D01  0879               	movf	___lldiv@quotient,w
  1961  0D02  00F0               	movwf	?___lldiv
  1962  0D03                     l316:
  1963  0D03  0008               	return
  1964  0D04                     __end_of___lldiv:
  1965                           
  1966                           	psect	text5
  1967  0C3B                     __ptext5:	
  1968 ;; *************** function _decimal *****************
  1969 ;; Defined at:
  1970 ;;		line 174 in file "Master_04.c"
  1971 ;; Parameters:    Size  Location     Type
  1972 ;;  var             1    wreg     unsigned char 
  1973 ;; Auto vars:     Size  Location     Type
  1974 ;;  var             1   12[COMMON] unsigned char 
  1975 ;;  VAL             1   13[COMMON] unsigned char 
  1976 ;; Return value:  Size  Location     Type
  1977 ;;                  1    wreg      void 
  1978 ;; Registers used:
  1979 ;;		wreg, status,2, status,0, pclath, cstack
  1980 ;; Tracked objects:
  1981 ;;		On entry : 0/0
  1982 ;;		On exit  : 0/0
  1983 ;;		Unchanged: 0/0
  1984 ;; Data sizes:     COMMON   BANK0   BANK1   BANK3   BANK2
  1985 ;;      Params:         0       0       0       0       0
  1986 ;;      Locals:         2       0       0       0       0
  1987 ;;      Temps:          3       0       0       0       0
  1988 ;;      Totals:         5       0       0       0       0
  1989 ;;Total ram usage:        5 bytes
  1990 ;; Hardware stack levels used:    1
  1991 ;; Hardware stack levels required when called:    1
  1992 ;; This function calls:
  1993 ;;		___awdiv
  1994 ;;		___bmul
  1995 ;; This function is called by:
  1996 ;;		_main
  1997 ;; This function uses a non-reentrant model
  1998 ;;
  1999                           
  2000                           
  2001                           ;psect for function _decimal
  2002  0C3B                     _decimal:
  2003                           
  2004                           ;incstack = 0
  2005                           ; Regs used in _decimal: [wreg+status,2+status,0+pclath+cstack]
  2006                           ;decimal@var stored from wreg
  2007  0C3B  00FC               	movwf	decimal@var
  2008  0C3C                     l2264:
  2009                           
  2010                           ;Master_04.c: 175:     uint8_t VAL;;Master_04.c: 176:     VAL = var;
  2011  0C3C  087C               	movf	decimal@var,w
  2012  0C3D  00F9               	movwf	??_decimal
  2013  0C3E  0879               	movf	??_decimal,w
  2014  0C3F  00FD               	movwf	decimal@VAL
  2015  0C40                     l2266:
  2016                           
  2017                           ;Master_04.c: 177:     cen = (VAL/100) ;
  2018  0C40  3064               	movlw	100
  2019  0C41  00F0               	movwf	___awdiv@divisor
  2020  0C42  3000               	movlw	0
  2021  0C43  00F1               	movwf	___awdiv@divisor+1
  2022  0C44  087D               	movf	decimal@VAL,w
  2023  0C45  00F9               	movwf	??_decimal
  2024  0C46  01FA               	clrf	??_decimal+1
  2025  0C47  0879               	movf	??_decimal,w
  2026  0C48  00F2               	movwf	___awdiv@dividend
  2027  0C49  087A               	movf	??_decimal+1,w
  2028  0C4A  00F3               	movwf	___awdiv@dividend+1
  2029  0C4B  120A  158A  2504  120A  158A  	fcall	___awdiv
  2030  0C50  0870               	movf	?___awdiv,w
  2031  0C51  00FB               	movwf	??_decimal+2
  2032  0C52  087B               	movf	??_decimal+2,w
  2033  0C53  1283               	bcf	3,5	;RP0=0, select bank0
  2034  0C54  1303               	bcf	3,6	;RP1=0, select bank0
  2035  0C55  00E9               	movwf	_cen
  2036  0C56                     l2268:
  2037                           
  2038                           ;Master_04.c: 178:     VAL = (VAL - (cen*100));
  2039  0C56  309C               	movlw	156
  2040  0C57  00F9               	movwf	??_decimal
  2041  0C58  0879               	movf	??_decimal,w
  2042  0C59  00F0               	movwf	___bmul@multiplicand
  2043  0C5A  0869               	movf	_cen,w
  2044  0C5B  120A  158A  2281  120A  158A  	fcall	___bmul
  2045  0C60  077D               	addwf	decimal@VAL,w
  2046  0C61  00FA               	movwf	??_decimal+1
  2047  0C62  087A               	movf	??_decimal+1,w
  2048  0C63  00FD               	movwf	decimal@VAL
  2049  0C64                     l2270:
  2050                           
  2051                           ;Master_04.c: 179:     dec = (VAL/10);
  2052  0C64  300A               	movlw	10
  2053  0C65  00F0               	movwf	___awdiv@divisor
  2054  0C66  3000               	movlw	0
  2055  0C67  00F1               	movwf	___awdiv@divisor+1
  2056  0C68  087D               	movf	decimal@VAL,w
  2057  0C69  00F9               	movwf	??_decimal
  2058  0C6A  01FA               	clrf	??_decimal+1
  2059  0C6B  0879               	movf	??_decimal,w
  2060  0C6C  00F2               	movwf	___awdiv@dividend
  2061  0C6D  087A               	movf	??_decimal+1,w
  2062  0C6E  00F3               	movwf	___awdiv@dividend+1
  2063  0C6F  120A  158A  2504  120A  158A  	fcall	___awdiv
  2064  0C74  0870               	movf	?___awdiv,w
  2065  0C75  00FB               	movwf	??_decimal+2
  2066  0C76  087B               	movf	??_decimal+2,w
  2067  0C77  1283               	bcf	3,5	;RP0=0, select bank0
  2068  0C78  1303               	bcf	3,6	;RP1=0, select bank0
  2069  0C79  00EA               	movwf	_dec
  2070  0C7A                     l2272:
  2071                           
  2072                           ;Master_04.c: 180:     VAL = (VAL - (dec*10));
  2073  0C7A  30F6               	movlw	246
  2074  0C7B  00F9               	movwf	??_decimal
  2075  0C7C  0879               	movf	??_decimal,w
  2076  0C7D  00F0               	movwf	___bmul@multiplicand
  2077  0C7E  086A               	movf	_dec,w
  2078  0C7F  120A  158A  2281  120A  158A  	fcall	___bmul
  2079  0C84  077D               	addwf	decimal@VAL,w
  2080  0C85  00FA               	movwf	??_decimal+1
  2081  0C86  087A               	movf	??_decimal+1,w
  2082  0C87  00FD               	movwf	decimal@VAL
  2083                           
  2084                           ;Master_04.c: 181:     un = (VAL);
  2085  0C88  087D               	movf	decimal@VAL,w
  2086  0C89  00F9               	movwf	??_decimal
  2087  0C8A  0879               	movf	??_decimal,w
  2088  0C8B  1283               	bcf	3,5	;RP0=0, select bank0
  2089  0C8C  1303               	bcf	3,6	;RP1=0, select bank0
  2090  0C8D  00EB               	movwf	_un
  2091  0C8E                     l2274:
  2092                           
  2093                           ;Master_04.c: 183:     cen = cen + 48;
  2094  0C8E  0869               	movf	_cen,w
  2095  0C8F  3E30               	addlw	48
  2096  0C90  00F9               	movwf	??_decimal
  2097  0C91  0879               	movf	??_decimal,w
  2098  0C92  00E9               	movwf	_cen
  2099  0C93                     l2276:
  2100                           
  2101                           ;Master_04.c: 184:     dec = dec + 48;
  2102  0C93  086A               	movf	_dec,w
  2103  0C94  3E30               	addlw	48
  2104  0C95  00F9               	movwf	??_decimal
  2105  0C96  0879               	movf	??_decimal,w
  2106  0C97  00EA               	movwf	_dec
  2107  0C98                     l2278:
  2108                           
  2109                           ;Master_04.c: 185:     un = un + 48;
  2110  0C98  086B               	movf	_un,w
  2111  0C99  3E30               	addlw	48
  2112  0C9A  00F9               	movwf	??_decimal
  2113  0C9B  0879               	movf	??_decimal,w
  2114  0C9C  00EB               	movwf	_un
  2115  0C9D                     l78:
  2116  0C9D  0008               	return
  2117  0C9E                     __end_of_decimal:
  2118                           
  2119                           	psect	text6
  2120  0E8D                     __ptext6:	
  2121 ;; *************** function _Temperatura *****************
  2122 ;; Defined at:
  2123 ;;		line 203 in file "Master_04.c"
  2124 ;; Parameters:    Size  Location     Type
  2125 ;;  var             1    wreg     unsigned char 
  2126 ;; Auto vars:     Size  Location     Type
  2127 ;;  var             1   62[BANK0 ] unsigned char 
  2128 ;;  VAL             1   63[BANK0 ] unsigned char 
  2129 ;; Return value:  Size  Location     Type
  2130 ;;                  1    wreg      void 
  2131 ;; Registers used:
  2132 ;;		wreg, status,2, status,0, btemp+1, pclath, cstack
  2133 ;; Tracked objects:
  2134 ;;		On entry : 0/0
  2135 ;;		On exit  : 0/0
  2136 ;;		Unchanged: 0/0
  2137 ;; Data sizes:     COMMON   BANK0   BANK1   BANK3   BANK2
  2138 ;;      Params:         0       0       0       0       0
  2139 ;;      Locals:         0       2       0       0       0
  2140 ;;      Temps:          0       5       0       0       0
  2141 ;;      Totals:         0       7       0       0       0
  2142 ;;Total ram usage:        7 bytes
  2143 ;; Hardware stack levels used:    1
  2144 ;; Hardware stack levels required when called:    2
  2145 ;; This function calls:
  2146 ;;		___awdiv
  2147 ;;		___bmul
  2148 ;;		___fladd
  2149 ;;		___flmul
  2150 ;;		___fltol
  2151 ;;		___xxtofl
  2152 ;; This function is called by:
  2153 ;;		_main
  2154 ;; This function uses a non-reentrant model
  2155 ;;
  2156                           
  2157                           
  2158                           ;psect for function _Temperatura
  2159  0E8D                     _Temperatura:
  2160                           
  2161                           ;incstack = 0
  2162                           ; Regs used in _Temperatura: [wreg+status,2+status,0+btemp+1+pclath+cstack]
  2163                           ;Temperatura@var stored from wreg
  2164  0E8D  1283               	bcf	3,5	;RP0=0, select bank0
  2165  0E8E  1303               	bcf	3,6	;RP1=0, select bank0
  2166  0E8F  00DE               	movwf	Temperatura@var
  2167  0E90                     l2280:
  2168                           
  2169                           ;Master_04.c: 204:     uint8_t VAL;;Master_04.c: 205:     VAL = (0.7*var)-47;
  2170  0E90  085E               	movf	Temperatura@var,w
  2171  0E91  00D9               	movwf	??_Temperatura
  2172  0E92  01DA               	clrf	??_Temperatura+1
  2173  0E93  01DB               	clrf	??_Temperatura+2
  2174  0E94  01DC               	clrf	??_Temperatura+3
  2175  0E95  085C               	movf	??_Temperatura+3,w
  2176  0E96  00F3               	movwf	___xxtofl@val+3
  2177  0E97  085B               	movf	??_Temperatura+2,w
  2178  0E98  00F2               	movwf	___xxtofl@val+2
  2179  0E99  085A               	movf	??_Temperatura+1,w
  2180  0E9A  00F1               	movwf	___xxtofl@val+1
  2181  0E9B  0859               	movf	??_Temperatura,w
  2182  0E9C  00F0               	movwf	___xxtofl@val
  2183  0E9D  3001               	movlw	1
  2184  0E9E  120A  158A  2746  120A  158A  	fcall	___xxtofl
  2185  0EA3  0873               	movf	?___xxtofl+3,w
  2186  0EA4  1283               	bcf	3,5	;RP0=0, select bank0
  2187  0EA5  1303               	bcf	3,6	;RP1=0, select bank0
  2188  0EA6  00A7               	movwf	___flmul@a+3
  2189  0EA7  0872               	movf	?___xxtofl+2,w
  2190  0EA8  00A6               	movwf	___flmul@a+2
  2191  0EA9  0871               	movf	?___xxtofl+1,w
  2192  0EAA  00A5               	movwf	___flmul@a+1
  2193  0EAB  0870               	movf	?___xxtofl,w
  2194  0EAC  00A4               	movwf	___flmul@a
  2195  0EAD  303F               	movlw	63
  2196  0EAE  00A3               	movwf	___flmul@b+3
  2197  0EAF  3033               	movlw	51
  2198  0EB0  00A2               	movwf	___flmul@b+2
  2199  0EB1  3033               	movlw	51
  2200  0EB2  00A1               	movwf	___flmul@b+1
  2201  0EB3  3033               	movlw	51
  2202  0EB4  00A0               	movwf	___flmul@b
  2203  0EB5  120A  118A  2489  120A  158A  	fcall	___flmul
  2204  0EBA  1283               	bcf	3,5	;RP0=0, select bank0
  2205  0EBB  1303               	bcf	3,6	;RP1=0, select bank0
  2206  0EBC  0823               	movf	?___flmul+3,w
  2207  0EBD  00C1               	movwf	___fladd@a+3
  2208  0EBE  0822               	movf	?___flmul+2,w
  2209  0EBF  00C0               	movwf	___fladd@a+2
  2210  0EC0  0821               	movf	?___flmul+1,w
  2211  0EC1  00BF               	movwf	___fladd@a+1
  2212  0EC2  0820               	movf	?___flmul,w
  2213  0EC3  00BE               	movwf	___fladd@a
  2214  0EC4  30C2               	movlw	194
  2215  0EC5  00BD               	movwf	___fladd@b+3
  2216  0EC6  303C               	movlw	60
  2217  0EC7  00BC               	movwf	___fladd@b+2
  2218  0EC8  3000               	movlw	0
  2219  0EC9  00BB               	movwf	___fladd@b+1
  2220  0ECA  3000               	movlw	0
  2221  0ECB  00BA               	movwf	___fladd@b
  2222  0ECC  120A  118A  2201  120A  158A  	fcall	___fladd
  2223  0ED1  1283               	bcf	3,5	;RP0=0, select bank0
  2224  0ED2  1303               	bcf	3,6	;RP1=0, select bank0
  2225  0ED3  083D               	movf	?___fladd+3,w
  2226  0ED4  00D1               	movwf	___fltol@f1+3
  2227  0ED5  083C               	movf	?___fladd+2,w
  2228  0ED6  00D0               	movwf	___fltol@f1+2
  2229  0ED7  083B               	movf	?___fladd+1,w
  2230  0ED8  00CF               	movwf	___fltol@f1+1
  2231  0ED9  083A               	movf	?___fladd,w
  2232  0EDA  00CE               	movwf	___fltol@f1
  2233  0EDB  120A  158A  256B  120A  158A  	fcall	___fltol
  2234  0EE0  1283               	bcf	3,5	;RP0=0, select bank0
  2235  0EE1  1303               	bcf	3,6	;RP1=0, select bank0
  2236  0EE2  084E               	movf	?___fltol,w
  2237  0EE3  00DD               	movwf	??_Temperatura+4
  2238  0EE4  085D               	movf	??_Temperatura+4,w
  2239  0EE5  00DF               	movwf	Temperatura@VAL
  2240  0EE6                     l2282:
  2241                           
  2242                           ;Master_04.c: 206:     cen = (VAL/100) ;
  2243  0EE6  3064               	movlw	100
  2244  0EE7  00F0               	movwf	___awdiv@divisor
  2245  0EE8  3000               	movlw	0
  2246  0EE9  00F1               	movwf	___awdiv@divisor+1
  2247  0EEA  085F               	movf	Temperatura@VAL,w
  2248  0EEB  00D9               	movwf	??_Temperatura
  2249  0EEC  01DA               	clrf	??_Temperatura+1
  2250  0EED  0859               	movf	??_Temperatura,w
  2251  0EEE  00F2               	movwf	___awdiv@dividend
  2252  0EEF  085A               	movf	??_Temperatura+1,w
  2253  0EF0  00F3               	movwf	___awdiv@dividend+1
  2254  0EF1  120A  158A  2504  120A  158A  	fcall	___awdiv
  2255  0EF6  0870               	movf	?___awdiv,w
  2256  0EF7  1283               	bcf	3,5	;RP0=0, select bank0
  2257  0EF8  1303               	bcf	3,6	;RP1=0, select bank0
  2258  0EF9  00DB               	movwf	??_Temperatura+2
  2259  0EFA  085B               	movf	??_Temperatura+2,w
  2260  0EFB  00E9               	movwf	_cen
  2261  0EFC                     l2284:
  2262                           
  2263                           ;Master_04.c: 207:     VAL = (VAL - (cen*100));
  2264  0EFC  309C               	movlw	156
  2265  0EFD  00D9               	movwf	??_Temperatura
  2266  0EFE  0859               	movf	??_Temperatura,w
  2267  0EFF  00F0               	movwf	___bmul@multiplicand
  2268  0F00  0869               	movf	_cen,w
  2269  0F01  120A  158A  2281  120A  158A  	fcall	___bmul
  2270  0F06  1283               	bcf	3,5	;RP0=0, select bank0
  2271  0F07  1303               	bcf	3,6	;RP1=0, select bank0
  2272  0F08  075F               	addwf	Temperatura@VAL,w
  2273  0F09  00DA               	movwf	??_Temperatura+1
  2274  0F0A  085A               	movf	??_Temperatura+1,w
  2275  0F0B  00DF               	movwf	Temperatura@VAL
  2276  0F0C                     l2286:
  2277                           
  2278                           ;Master_04.c: 208:     dec = (VAL/10);
  2279  0F0C  300A               	movlw	10
  2280  0F0D  00F0               	movwf	___awdiv@divisor
  2281  0F0E  3000               	movlw	0
  2282  0F0F  00F1               	movwf	___awdiv@divisor+1
  2283  0F10  085F               	movf	Temperatura@VAL,w
  2284  0F11  00D9               	movwf	??_Temperatura
  2285  0F12  01DA               	clrf	??_Temperatura+1
  2286  0F13  0859               	movf	??_Temperatura,w
  2287  0F14  00F2               	movwf	___awdiv@dividend
  2288  0F15  085A               	movf	??_Temperatura+1,w
  2289  0F16  00F3               	movwf	___awdiv@dividend+1
  2290  0F17  120A  158A  2504  120A  158A  	fcall	___awdiv
  2291  0F1C  0870               	movf	?___awdiv,w
  2292  0F1D  1283               	bcf	3,5	;RP0=0, select bank0
  2293  0F1E  1303               	bcf	3,6	;RP1=0, select bank0
  2294  0F1F  00DB               	movwf	??_Temperatura+2
  2295  0F20  085B               	movf	??_Temperatura+2,w
  2296  0F21  00EA               	movwf	_dec
  2297  0F22                     l2288:
  2298                           
  2299                           ;Master_04.c: 209:     VAL = (VAL - (dec*10));
  2300  0F22  30F6               	movlw	246
  2301  0F23  00D9               	movwf	??_Temperatura
  2302  0F24  0859               	movf	??_Temperatura,w
  2303  0F25  00F0               	movwf	___bmul@multiplicand
  2304  0F26  086A               	movf	_dec,w
  2305  0F27  120A  158A  2281  120A  158A  	fcall	___bmul
  2306  0F2C  1283               	bcf	3,5	;RP0=0, select bank0
  2307  0F2D  1303               	bcf	3,6	;RP1=0, select bank0
  2308  0F2E  075F               	addwf	Temperatura@VAL,w
  2309  0F2F  00DA               	movwf	??_Temperatura+1
  2310  0F30  085A               	movf	??_Temperatura+1,w
  2311  0F31  00DF               	movwf	Temperatura@VAL
  2312  0F32                     l2290:
  2313                           
  2314                           ;Master_04.c: 210:     un = (VAL);
  2315  0F32  085F               	movf	Temperatura@VAL,w
  2316  0F33  00D9               	movwf	??_Temperatura
  2317  0F34  0859               	movf	??_Temperatura,w
  2318  0F35  00EB               	movwf	_un
  2319  0F36                     l2292:
  2320                           
  2321                           ;Master_04.c: 212:     cen = cen + 48;
  2322  0F36  0869               	movf	_cen,w
  2323  0F37  3E30               	addlw	48
  2324  0F38  00D9               	movwf	??_Temperatura
  2325  0F39  0859               	movf	??_Temperatura,w
  2326  0F3A  00E9               	movwf	_cen
  2327  0F3B                     l2294:
  2328                           
  2329                           ;Master_04.c: 213:     dec = dec + 48;
  2330  0F3B  086A               	movf	_dec,w
  2331  0F3C  3E30               	addlw	48
  2332  0F3D  00D9               	movwf	??_Temperatura
  2333  0F3E  0859               	movf	??_Temperatura,w
  2334  0F3F  00EA               	movwf	_dec
  2335  0F40                     l2296:
  2336                           
  2337                           ;Master_04.c: 214:     un = un + 48;
  2338  0F40  086B               	movf	_un,w
  2339  0F41  3E30               	addlw	48
  2340  0F42  00D9               	movwf	??_Temperatura
  2341  0F43  0859               	movf	??_Temperatura,w
  2342  0F44  00EB               	movwf	_un
  2343  0F45                     l84:
  2344  0F45  0008               	return
  2345  0F46                     __end_of_Temperatura:
  2346                           
  2347                           	psect	text7
  2348  0F46                     __ptext7:	
  2349 ;; *************** function ___xxtofl *****************
  2350 ;; Defined at:
  2351 ;;		line 10 in file "C:\Program Files\Microchip\xc8\v2.31\pic\sources\c90\common\xxtofl.c"
  2352 ;; Parameters:    Size  Location     Type
  2353 ;;  sign            1    wreg     unsigned char 
  2354 ;;  val             4    0[COMMON] long 
  2355 ;; Auto vars:     Size  Location     Type
  2356 ;;  sign            1    8[COMMON] unsigned char 
  2357 ;;  arg             4   10[COMMON] unsigned long 
  2358 ;;  exp             1    9[COMMON] unsigned char 
  2359 ;; Return value:  Size  Location     Type
  2360 ;;                  4    0[COMMON] unsigned char 
  2361 ;; Registers used:
  2362 ;;		wreg, status,2, status,0
  2363 ;; Tracked objects:
  2364 ;;		On entry : 0/0
  2365 ;;		On exit  : 0/0
  2366 ;;		Unchanged: 0/0
  2367 ;; Data sizes:     COMMON   BANK0   BANK1   BANK3   BANK2
  2368 ;;      Params:         4       0       0       0       0
  2369 ;;      Locals:         6       0       0       0       0
  2370 ;;      Temps:          4       0       0       0       0
  2371 ;;      Totals:        14       0       0       0       0
  2372 ;;Total ram usage:       14 bytes
  2373 ;; Hardware stack levels used:    1
  2374 ;; This function calls:
  2375 ;;		Nothing
  2376 ;; This function is called by:
  2377 ;;		_voltaje
  2378 ;;		_Temperatura
  2379 ;; This function uses a non-reentrant model
  2380 ;;
  2381                           
  2382                           
  2383                           ;psect for function ___xxtofl
  2384  0F46                     ___xxtofl:
  2385                           
  2386                           ;incstack = 0
  2387                           ; Regs used in ___xxtofl: [wreg+status,2+status,0]
  2388                           ;___xxtofl@sign stored from wreg
  2389  0F46  00F8               	movwf	___xxtofl@sign
  2390  0F47                     l2120:
  2391  0F47  0878               	movf	___xxtofl@sign,w
  2392  0F48  1903               	btfsc	3,2
  2393  0F49  2F4B               	goto	u2671
  2394  0F4A  2F4C               	goto	u2670
  2395  0F4B                     u2671:
  2396  0F4B  2F60               	goto	l2126
  2397  0F4C                     u2670:
  2398  0F4C                     l2122:
  2399  0F4C  1FF3               	btfss	___xxtofl@val+3,7
  2400  0F4D  2F4F               	goto	u2681
  2401  0F4E  2F50               	goto	u2680
  2402  0F4F                     u2681:
  2403  0F4F  2F60               	goto	l2126
  2404  0F50                     u2680:
  2405  0F50                     l2124:
  2406  0F50  0970               	comf	___xxtofl@val,w
  2407  0F51  00FA               	movwf	___xxtofl@arg
  2408  0F52  0971               	comf	___xxtofl@val+1,w
  2409  0F53  00FB               	movwf	___xxtofl@arg+1
  2410  0F54  0972               	comf	___xxtofl@val+2,w
  2411  0F55  00FC               	movwf	___xxtofl@arg+2
  2412  0F56  0973               	comf	___xxtofl@val+3,w
  2413  0F57  00FD               	movwf	___xxtofl@arg+3
  2414  0F58  0AFA               	incf	___xxtofl@arg,f
  2415  0F59  1903               	skipnz
  2416  0F5A  0AFB               	incf	___xxtofl@arg+1,f
  2417  0F5B  1903               	skipnz
  2418  0F5C  0AFC               	incf	___xxtofl@arg+2,f
  2419  0F5D  1903               	skipnz
  2420  0F5E  0AFD               	incf	___xxtofl@arg+3,f
  2421  0F5F  2F68               	goto	l713
  2422  0F60                     l2126:
  2423  0F60  0873               	movf	___xxtofl@val+3,w
  2424  0F61  00FD               	movwf	___xxtofl@arg+3
  2425  0F62  0872               	movf	___xxtofl@val+2,w
  2426  0F63  00FC               	movwf	___xxtofl@arg+2
  2427  0F64  0871               	movf	___xxtofl@val+1,w
  2428  0F65  00FB               	movwf	___xxtofl@arg+1
  2429  0F66  0870               	movf	___xxtofl@val,w
  2430  0F67  00FA               	movwf	___xxtofl@arg
  2431  0F68                     l713:
  2432  0F68  0873               	movf	___xxtofl@val+3,w
  2433  0F69  0472               	iorwf	___xxtofl@val+2,w
  2434  0F6A  0471               	iorwf	___xxtofl@val+1,w
  2435  0F6B  0470               	iorwf	___xxtofl@val,w
  2436  0F6C  1D03               	skipz
  2437  0F6D  2F6F               	goto	u2691
  2438  0F6E  2F70               	goto	u2690
  2439  0F6F                     u2691:
  2440  0F6F  2F79               	goto	l2132
  2441  0F70                     u2690:
  2442  0F70                     l2128:
  2443  0F70  3000               	movlw	0
  2444  0F71  00F3               	movwf	?___xxtofl+3
  2445  0F72  3000               	movlw	0
  2446  0F73  00F2               	movwf	?___xxtofl+2
  2447  0F74  3000               	movlw	0
  2448  0F75  00F1               	movwf	?___xxtofl+1
  2449  0F76  3000               	movlw	0
  2450  0F77  00F0               	movwf	?___xxtofl
  2451  0F78  2FFF               	goto	l715
  2452  0F79                     l2132:
  2453  0F79  3096               	movlw	150
  2454  0F7A  00F4               	movwf	??___xxtofl
  2455  0F7B  0874               	movf	??___xxtofl,w
  2456  0F7C  00F9               	movwf	___xxtofl@exp
  2457  0F7D  2F8B               	goto	l2136
  2458  0F7E                     l2134:
  2459  0F7E  3001               	movlw	1
  2460  0F7F  00F4               	movwf	??___xxtofl
  2461  0F80  0874               	movf	??___xxtofl,w
  2462  0F81  07F9               	addwf	___xxtofl@exp,f
  2463  0F82  3001               	movlw	1
  2464  0F83                     u2705:
  2465  0F83  1003               	clrc
  2466  0F84  0CFD               	rrf	___xxtofl@arg+3,f
  2467  0F85  0CFC               	rrf	___xxtofl@arg+2,f
  2468  0F86  0CFB               	rrf	___xxtofl@arg+1,f
  2469  0F87  0CFA               	rrf	___xxtofl@arg,f
  2470  0F88  3EFF               	addlw	-1
  2471  0F89  1D03               	skipz
  2472  0F8A  2F83               	goto	u2705
  2473  0F8B                     l2136:
  2474  0F8B  30FE               	movlw	254
  2475  0F8C  057D               	andwf	___xxtofl@arg+3,w
  2476  0F8D  1D03               	btfss	3,2
  2477  0F8E  2F90               	goto	u2711
  2478  0F8F  2F91               	goto	u2710
  2479  0F90                     u2711:
  2480  0F90  2F7E               	goto	l2134
  2481  0F91                     u2710:
  2482  0F91  2FAD               	goto	l719
  2483  0F92                     l2138:
  2484  0F92  3001               	movlw	1
  2485  0F93  00F4               	movwf	??___xxtofl
  2486  0F94  0874               	movf	??___xxtofl,w
  2487  0F95  07F9               	addwf	___xxtofl@exp,f
  2488  0F96                     l2140:
  2489  0F96  3001               	movlw	1
  2490  0F97  07FA               	addwf	___xxtofl@arg,f
  2491  0F98  3000               	movlw	0
  2492  0F99  1803               	skipnc
  2493  0F9A  3001               	movlw	1
  2494  0F9B  07FB               	addwf	___xxtofl@arg+1,f
  2495  0F9C  3000               	movlw	0
  2496  0F9D  1803               	skipnc
  2497  0F9E  3001               	movlw	1
  2498  0F9F  07FC               	addwf	___xxtofl@arg+2,f
  2499  0FA0  3000               	movlw	0
  2500  0FA1  1803               	skipnc
  2501  0FA2  3001               	movlw	1
  2502  0FA3  07FD               	addwf	___xxtofl@arg+3,f
  2503  0FA4                     l2142:
  2504  0FA4  3001               	movlw	1
  2505  0FA5                     u2725:
  2506  0FA5  1003               	clrc
  2507  0FA6  0CFD               	rrf	___xxtofl@arg+3,f
  2508  0FA7  0CFC               	rrf	___xxtofl@arg+2,f
  2509  0FA8  0CFB               	rrf	___xxtofl@arg+1,f
  2510  0FA9  0CFA               	rrf	___xxtofl@arg,f
  2511  0FAA  3EFF               	addlw	-1
  2512  0FAB  1D03               	skipz
  2513  0FAC  2FA5               	goto	u2725
  2514  0FAD                     l719:
  2515  0FAD  30FF               	movlw	255
  2516  0FAE  057D               	andwf	___xxtofl@arg+3,w
  2517  0FAF  1D03               	btfss	3,2
  2518  0FB0  2FB2               	goto	u2731
  2519  0FB1  2FB3               	goto	u2730
  2520  0FB2                     u2731:
  2521  0FB2  2F92               	goto	l2138
  2522  0FB3                     u2730:
  2523  0FB3  2FBF               	goto	l2146
  2524  0FB4                     l2144:
  2525  0FB4  3001               	movlw	1
  2526  0FB5  02F9               	subwf	___xxtofl@exp,f
  2527  0FB6  3001               	movlw	1
  2528  0FB7  00F4               	movwf	??___xxtofl
  2529  0FB8                     u2745:
  2530  0FB8  1003               	clrc
  2531  0FB9  0DFA               	rlf	___xxtofl@arg,f
  2532  0FBA  0DFB               	rlf	___xxtofl@arg+1,f
  2533  0FBB  0DFC               	rlf	___xxtofl@arg+2,f
  2534  0FBC  0DFD               	rlf	___xxtofl@arg+3,f
  2535  0FBD  0BF4               	decfsz	??___xxtofl,f
  2536  0FBE  2FB8               	goto	u2745
  2537  0FBF                     l2146:
  2538  0FBF  1BFC               	btfsc	___xxtofl@arg+2,7
  2539  0FC0  2FC2               	goto	u2751
  2540  0FC1  2FC3               	goto	u2750
  2541  0FC2                     u2751:
  2542  0FC2  2FC9               	goto	l726
  2543  0FC3                     u2750:
  2544  0FC3                     l2148:
  2545  0FC3  3002               	movlw	2
  2546  0FC4  0279               	subwf	___xxtofl@exp,w
  2547  0FC5  1803               	skipnc
  2548  0FC6  2FC8               	goto	u2761
  2549  0FC7  2FC9               	goto	u2760
  2550  0FC8                     u2761:
  2551  0FC8  2FB4               	goto	l2144
  2552  0FC9                     u2760:
  2553  0FC9                     l726:
  2554  0FC9  1879               	btfsc	___xxtofl@exp,0
  2555  0FCA  2FCC               	goto	u2771
  2556  0FCB  2FCD               	goto	u2770
  2557  0FCC                     u2771:
  2558  0FCC  2FD5               	goto	l727
  2559  0FCD                     u2770:
  2560  0FCD                     l2150:
  2561  0FCD  30FF               	movlw	255
  2562  0FCE  05FA               	andwf	___xxtofl@arg,f
  2563  0FCF  30FF               	movlw	255
  2564  0FD0  05FB               	andwf	___xxtofl@arg+1,f
  2565  0FD1  307F               	movlw	127
  2566  0FD2  05FC               	andwf	___xxtofl@arg+2,f
  2567  0FD3  30FF               	movlw	255
  2568  0FD4  05FD               	andwf	___xxtofl@arg+3,f
  2569  0FD5                     l727:
  2570  0FD5  1003               	clrc
  2571  0FD6  0CF9               	rrf	___xxtofl@exp,f
  2572  0FD7                     l2152:
  2573  0FD7  0879               	movf	___xxtofl@exp,w
  2574  0FD8  00F4               	movwf	??___xxtofl
  2575  0FD9  01F5               	clrf	??___xxtofl+1
  2576  0FDA  01F6               	clrf	??___xxtofl+2
  2577  0FDB  01F7               	clrf	??___xxtofl+3
  2578  0FDC  3018               	movlw	24
  2579  0FDD                     u2785:
  2580  0FDD  1003               	clrc
  2581  0FDE  0DF4               	rlf	??___xxtofl,f
  2582  0FDF  0DF5               	rlf	??___xxtofl+1,f
  2583  0FE0  0DF6               	rlf	??___xxtofl+2,f
  2584  0FE1  0DF7               	rlf	??___xxtofl+3,f
  2585  0FE2                     u2780:
  2586  0FE2  3EFF               	addlw	-1
  2587  0FE3  1D03               	skipz
  2588  0FE4  2FDD               	goto	u2785
  2589  0FE5  0874               	movf	??___xxtofl,w
  2590  0FE6  04FA               	iorwf	___xxtofl@arg,f
  2591  0FE7  0875               	movf	??___xxtofl+1,w
  2592  0FE8  04FB               	iorwf	___xxtofl@arg+1,f
  2593  0FE9  0876               	movf	??___xxtofl+2,w
  2594  0FEA  04FC               	iorwf	___xxtofl@arg+2,f
  2595  0FEB  0877               	movf	??___xxtofl+3,w
  2596  0FEC  04FD               	iorwf	___xxtofl@arg+3,f
  2597  0FED                     l2154:
  2598  0FED  0878               	movf	___xxtofl@sign,w
  2599  0FEE  1903               	btfsc	3,2
  2600  0FEF  2FF1               	goto	u2791
  2601  0FF0  2FF2               	goto	u2790
  2602  0FF1                     u2791:
  2603  0FF1  2FF7               	goto	l2160
  2604  0FF2                     u2790:
  2605  0FF2                     l2156:
  2606  0FF2  1FF3               	btfss	___xxtofl@val+3,7
  2607  0FF3  2FF5               	goto	u2801
  2608  0FF4  2FF6               	goto	u2800
  2609  0FF5                     u2801:
  2610  0FF5  2FF7               	goto	l2160
  2611  0FF6                     u2800:
  2612  0FF6                     l2158:
  2613  0FF6  17FD               	bsf	___xxtofl@arg+3,7
  2614  0FF7                     l2160:
  2615  0FF7  087D               	movf	___xxtofl@arg+3,w
  2616  0FF8  00F3               	movwf	?___xxtofl+3
  2617  0FF9  087C               	movf	___xxtofl@arg+2,w
  2618  0FFA  00F2               	movwf	?___xxtofl+2
  2619  0FFB  087B               	movf	___xxtofl@arg+1,w
  2620  0FFC  00F1               	movwf	?___xxtofl+1
  2621  0FFD  087A               	movf	___xxtofl@arg,w
  2622  0FFE  00F0               	movwf	?___xxtofl
  2623  0FFF                     l715:
  2624  0FFF  0008               	return
  2625  1000                     __end_of___xxtofl:
  2626                           
  2627                           	psect	text8
  2628  0D6B                     __ptext8:	
  2629 ;; *************** function ___fltol *****************
  2630 ;; Defined at:
  2631 ;;		line 43 in file "C:\Program Files\Microchip\xc8\v2.31\pic\sources\c90\common\fltol.c"
  2632 ;; Parameters:    Size  Location     Type
  2633 ;;  f1              4   46[BANK0 ] unsigned char 
  2634 ;; Auto vars:     Size  Location     Type
  2635 ;;  exp1            1   56[BANK0 ] unsigned char 
  2636 ;;  sign1           1   55[BANK0 ] unsigned char 
  2637 ;; Return value:  Size  Location     Type
  2638 ;;                  4   46[BANK0 ] long 
  2639 ;; Registers used:
  2640 ;;		wreg, status,2, status,0
  2641 ;; Tracked objects:
  2642 ;;		On entry : 0/0
  2643 ;;		On exit  : 0/0
  2644 ;;		Unchanged: 0/0
  2645 ;; Data sizes:     COMMON   BANK0   BANK1   BANK3   BANK2
  2646 ;;      Params:         0       4       0       0       0
  2647 ;;      Locals:         0       2       0       0       0
  2648 ;;      Temps:          0       5       0       0       0
  2649 ;;      Totals:         0      11       0       0       0
  2650 ;;Total ram usage:       11 bytes
  2651 ;; Hardware stack levels used:    1
  2652 ;; This function calls:
  2653 ;;		Nothing
  2654 ;; This function is called by:
  2655 ;;		_voltaje
  2656 ;;		_Temperatura
  2657 ;; This function uses a non-reentrant model
  2658 ;;
  2659                           
  2660                           
  2661                           ;psect for function ___fltol
  2662  0D6B                     ___fltol:
  2663  0D6B                     l1750:	
  2664                           ;incstack = 0
  2665                           ; Regs used in ___fltol: [wreg+status,2+status,0]
  2666                           
  2667  0D6B  1003               	clrc
  2668  0D6C  1283               	bcf	3,5	;RP0=0, select bank0
  2669  0D6D  1303               	bcf	3,6	;RP1=0, select bank0
  2670  0D6E  0D50               	rlf	___fltol@f1+2,w
  2671  0D6F  0D51               	rlf	___fltol@f1+3,w
  2672  0D70  00D2               	movwf	??___fltol
  2673  0D71  0852               	movf	??___fltol,w
  2674  0D72  00D8               	movwf	___fltol@exp1
  2675  0D73  0858               	movf	___fltol@exp1,w
  2676  0D74  1D03               	btfss	3,2
  2677  0D75  2D77               	goto	u1741
  2678  0D76  2D78               	goto	u1740
  2679  0D77                     u1741:
  2680  0D77  2D81               	goto	l1756
  2681  0D78                     u1740:
  2682  0D78                     l1752:
  2683  0D78  3000               	movlw	0
  2684  0D79  00D1               	movwf	?___fltol+3
  2685  0D7A  3000               	movlw	0
  2686  0D7B  00D0               	movwf	?___fltol+2
  2687  0D7C  3000               	movlw	0
  2688  0D7D  00CF               	movwf	?___fltol+1
  2689  0D7E  3000               	movlw	0
  2690  0D7F  00CE               	movwf	?___fltol
  2691  0D80  2DE6               	goto	l466
  2692  0D81                     l1756:
  2693  0D81  084E               	movf	___fltol@f1,w
  2694  0D82  00D2               	movwf	??___fltol
  2695  0D83  084F               	movf	___fltol@f1+1,w
  2696  0D84  00D3               	movwf	??___fltol+1
  2697  0D85  0850               	movf	___fltol@f1+2,w
  2698  0D86  00D4               	movwf	??___fltol+2
  2699  0D87  0851               	movf	___fltol@f1+3,w
  2700  0D88  00D5               	movwf	??___fltol+3
  2701  0D89  301F               	movlw	31
  2702  0D8A                     u1755:
  2703  0D8A  1003               	clrc
  2704  0D8B  0CD5               	rrf	??___fltol+3,f
  2705  0D8C  0CD4               	rrf	??___fltol+2,f
  2706  0D8D  0CD3               	rrf	??___fltol+1,f
  2707  0D8E  0CD2               	rrf	??___fltol,f
  2708  0D8F                     u1750:
  2709  0D8F  3EFF               	addlw	-1
  2710  0D90  1D03               	skipz
  2711  0D91  2D8A               	goto	u1755
  2712  0D92  0852               	movf	??___fltol,w
  2713  0D93  00D6               	movwf	??___fltol+4
  2714  0D94  0856               	movf	??___fltol+4,w
  2715  0D95  00D7               	movwf	___fltol@sign1
  2716  0D96                     l1758:
  2717  0D96  17D0               	bsf	___fltol@f1+2,7
  2718  0D97                     l1760:
  2719  0D97  30FF               	movlw	255
  2720  0D98  05CE               	andwf	___fltol@f1,f
  2721  0D99  30FF               	movlw	255
  2722  0D9A  05CF               	andwf	___fltol@f1+1,f
  2723  0D9B  30FF               	movlw	255
  2724  0D9C  05D0               	andwf	___fltol@f1+2,f
  2725  0D9D  3000               	movlw	0
  2726  0D9E  05D1               	andwf	___fltol@f1+3,f
  2727  0D9F                     l1762:
  2728  0D9F  3096               	movlw	150
  2729  0DA0  02D8               	subwf	___fltol@exp1,f
  2730  0DA1                     l1764:
  2731  0DA1  1FD8               	btfss	___fltol@exp1,7
  2732  0DA2  2DA4               	goto	u1761
  2733  0DA3  2DA5               	goto	u1760
  2734  0DA4                     u1761:
  2735  0DA4  2DBF               	goto	l1774
  2736  0DA5                     u1760:
  2737  0DA5                     l1766:
  2738  0DA5  0858               	movf	___fltol@exp1,w
  2739  0DA6  3A80               	xorlw	128
  2740  0DA7  3E97               	addlw	151
  2741  0DA8  1803               	skipnc
  2742  0DA9  2DAB               	goto	u1771
  2743  0DAA  2DAC               	goto	u1770
  2744  0DAB                     u1771:
  2745  0DAB  2DAD               	goto	l1772
  2746  0DAC                     u1770:
  2747  0DAC  2D78               	goto	l1752
  2748  0DAD                     l1772:
  2749  0DAD  3001               	movlw	1
  2750  0DAE                     u1785:
  2751  0DAE  1003               	clrc
  2752  0DAF  0CD1               	rrf	___fltol@f1+3,f
  2753  0DB0  0CD0               	rrf	___fltol@f1+2,f
  2754  0DB1  0CCF               	rrf	___fltol@f1+1,f
  2755  0DB2  0CCE               	rrf	___fltol@f1,f
  2756  0DB3  3EFF               	addlw	-1
  2757  0DB4  1D03               	skipz
  2758  0DB5  2DAE               	goto	u1785
  2759  0DB6  3001               	movlw	1
  2760  0DB7  00D2               	movwf	??___fltol
  2761  0DB8  0852               	movf	??___fltol,w
  2762  0DB9  07D8               	addwf	___fltol@exp1,f
  2763  0DBA  1D03               	btfss	3,2
  2764  0DBB  2DBD               	goto	u1791
  2765  0DBC  2DBE               	goto	u1790
  2766  0DBD                     u1791:
  2767  0DBD  2DAD               	goto	l1772
  2768  0DBE                     u1790:
  2769  0DBE  2DD6               	goto	l1782
  2770  0DBF                     l1774:
  2771  0DBF  3020               	movlw	32
  2772  0DC0  0258               	subwf	___fltol@exp1,w
  2773  0DC1  1C03               	skipc
  2774  0DC2  2DC4               	goto	u1801
  2775  0DC3  2DC5               	goto	u1800
  2776  0DC4                     u1801:
  2777  0DC4  2DD1               	goto	l473
  2778  0DC5                     u1800:
  2779  0DC5  2D78               	goto	l1752
  2780  0DC6                     l1780:
  2781  0DC6  3001               	movlw	1
  2782  0DC7  00D2               	movwf	??___fltol
  2783  0DC8                     u1815:
  2784  0DC8  1003               	clrc
  2785  0DC9  0DCE               	rlf	___fltol@f1,f
  2786  0DCA  0DCF               	rlf	___fltol@f1+1,f
  2787  0DCB  0DD0               	rlf	___fltol@f1+2,f
  2788  0DCC  0DD1               	rlf	___fltol@f1+3,f
  2789  0DCD  0BD2               	decfsz	??___fltol,f
  2790  0DCE  2DC8               	goto	u1815
  2791  0DCF  3001               	movlw	1
  2792  0DD0  02D8               	subwf	___fltol@exp1,f
  2793  0DD1                     l473:
  2794  0DD1  0858               	movf	___fltol@exp1,w
  2795  0DD2  1D03               	btfss	3,2
  2796  0DD3  2DD5               	goto	u1821
  2797  0DD4  2DD6               	goto	u1820
  2798  0DD5                     u1821:
  2799  0DD5  2DC6               	goto	l1780
  2800  0DD6                     u1820:
  2801  0DD6                     l1782:
  2802  0DD6  0857               	movf	___fltol@sign1,w
  2803  0DD7  1903               	btfsc	3,2
  2804  0DD8  2DDA               	goto	u1831
  2805  0DD9  2DDB               	goto	u1830
  2806  0DDA                     u1831:
  2807  0DDA  2DE6               	goto	l476
  2808  0DDB                     u1830:
  2809  0DDB                     l1784:
  2810  0DDB  09CE               	comf	___fltol@f1,f
  2811  0DDC  09CF               	comf	___fltol@f1+1,f
  2812  0DDD  09D0               	comf	___fltol@f1+2,f
  2813  0DDE  09D1               	comf	___fltol@f1+3,f
  2814  0DDF  0ACE               	incf	___fltol@f1,f
  2815  0DE0  1903               	skipnz
  2816  0DE1  0ACF               	incf	___fltol@f1+1,f
  2817  0DE2  1903               	skipnz
  2818  0DE3  0AD0               	incf	___fltol@f1+2,f
  2819  0DE4  1903               	skipnz
  2820  0DE5  0AD1               	incf	___fltol@f1+3,f
  2821  0DE6                     l476:
  2822  0DE6                     l466:
  2823  0DE6  0008               	return
  2824  0DE7                     __end_of___fltol:
  2825                           
  2826                           	psect	text9
  2827  0489                     __ptext9:	
  2828 ;; *************** function ___flmul *****************
  2829 ;; Defined at:
  2830 ;;		line 8 in file "C:\Program Files\Microchip\xc8\v2.31\pic\sources\c90\common\sprcmul.c"
  2831 ;; Parameters:    Size  Location     Type
  2832 ;;  b               4    0[BANK0 ] long 
  2833 ;;  a               4    4[BANK0 ] long 
  2834 ;; Auto vars:     Size  Location     Type
  2835 ;;  prod            4   20[BANK0 ] struct .
  2836 ;;  grs             4   14[BANK0 ] unsigned long 
  2837 ;;  temp            2   24[BANK0 ] struct .
  2838 ;;  bexp            1   19[BANK0 ] unsigned char 
  2839 ;;  aexp            1   18[BANK0 ] unsigned char 
  2840 ;;  sign            1   13[BANK0 ] unsigned char 
  2841 ;; Return value:  Size  Location     Type
  2842 ;;                  4    0[BANK0 ] unsigned char 
  2843 ;; Registers used:
  2844 ;;		wreg, status,2, status,0, btemp+1, pclath, cstack
  2845 ;; Tracked objects:
  2846 ;;		On entry : 0/0
  2847 ;;		On exit  : 0/0
  2848 ;;		Unchanged: 0/0
  2849 ;; Data sizes:     COMMON   BANK0   BANK1   BANK3   BANK2
  2850 ;;      Params:         0       8       0       0       0
  2851 ;;      Locals:         0      13       0       0       0
  2852 ;;      Temps:          0       5       0       0       0
  2853 ;;      Totals:         0      26       0       0       0
  2854 ;;Total ram usage:       26 bytes
  2855 ;; Hardware stack levels used:    1
  2856 ;; Hardware stack levels required when called:    1
  2857 ;; This function calls:
  2858 ;;		__Umul8_16
  2859 ;; This function is called by:
  2860 ;;		_voltaje
  2861 ;;		_Temperatura
  2862 ;; This function uses a non-reentrant model
  2863 ;;
  2864                           
  2865                           
  2866                           ;psect for function ___flmul
  2867  0489                     ___flmul:
  2868  0489                     l1980:	
  2869                           ;incstack = 0
  2870                           ; Regs used in ___flmul: [wreg+status,2+status,0+btemp+1+pclath+cstack]
  2871                           
  2872  0489  1283               	bcf	3,5	;RP0=0, select bank0
  2873  048A  1303               	bcf	3,6	;RP1=0, select bank0
  2874  048B  0823               	movf	___flmul@b+3,w
  2875  048C  3980               	andlw	128
  2876  048D  00A8               	movwf	??___flmul
  2877  048E  0828               	movf	??___flmul,w
  2878  048F  00AD               	movwf	___flmul@sign
  2879  0490                     l1982:
  2880  0490  0823               	movf	___flmul@b+3,w
  2881  0491  00A8               	movwf	??___flmul
  2882  0492  0728               	addwf	??___flmul,w
  2883  0493  00A9               	movwf	??___flmul+1
  2884  0494  0829               	movf	??___flmul+1,w
  2885  0495  00B3               	movwf	___flmul@bexp
  2886  0496                     l1984:
  2887  0496  1FA2               	btfss	___flmul@b+2,7
  2888  0497  2C99               	goto	u2301
  2889  0498  2C9A               	goto	u2300
  2890  0499                     u2301:
  2891  0499  2C9B               	goto	l1988
  2892  049A                     u2300:
  2893  049A                     l1986:
  2894  049A  1433               	bsf	___flmul@bexp,0
  2895  049B                     l1988:
  2896  049B  0833               	movf	___flmul@bexp,w
  2897  049C  1903               	btfsc	3,2
  2898  049D  2C9F               	goto	u2311
  2899  049E  2CA0               	goto	u2310
  2900  049F                     u2311:
  2901  049F  2CAF               	goto	l1996
  2902  04A0                     u2310:
  2903  04A0                     l1990:
  2904  04A0  0A33               	incf	___flmul@bexp,w
  2905  04A1  1D03               	btfss	3,2
  2906  04A2  2CA4               	goto	u2321
  2907  04A3  2CA5               	goto	u2320
  2908  04A4                     u2321:
  2909  04A4  2CAD               	goto	l1994
  2910  04A5                     u2320:
  2911  04A5                     l1992:
  2912  04A5  3000               	movlw	0
  2913  04A6  00A3               	movwf	___flmul@b+3
  2914  04A7  3000               	movlw	0
  2915  04A8  00A2               	movwf	___flmul@b+2
  2916  04A9  3000               	movlw	0
  2917  04AA  00A1               	movwf	___flmul@b+1
  2918  04AB  3000               	movlw	0
  2919  04AC  00A0               	movwf	___flmul@b
  2920  04AD                     l1994:
  2921  04AD  17A2               	bsf	___flmul@b+2,7
  2922  04AE  2CB7               	goto	l1998
  2923  04AF                     l1996:
  2924  04AF  3000               	movlw	0
  2925  04B0  00A3               	movwf	___flmul@b+3
  2926  04B1  3000               	movlw	0
  2927  04B2  00A2               	movwf	___flmul@b+2
  2928  04B3  3000               	movlw	0
  2929  04B4  00A1               	movwf	___flmul@b+1
  2930  04B5  3000               	movlw	0
  2931  04B6  00A0               	movwf	___flmul@b
  2932  04B7                     l1998:
  2933  04B7  0827               	movf	___flmul@a+3,w
  2934  04B8  3980               	andlw	128
  2935  04B9  00A8               	movwf	??___flmul
  2936  04BA  0828               	movf	??___flmul,w
  2937  04BB  06AD               	xorwf	___flmul@sign,f
  2938  04BC                     l2000:
  2939  04BC  0827               	movf	___flmul@a+3,w
  2940  04BD  00A8               	movwf	??___flmul
  2941  04BE  0728               	addwf	??___flmul,w
  2942  04BF  00A9               	movwf	??___flmul+1
  2943  04C0  0829               	movf	??___flmul+1,w
  2944  04C1  00B2               	movwf	___flmul@aexp
  2945  04C2                     l2002:
  2946  04C2  1FA6               	btfss	___flmul@a+2,7
  2947  04C3  2CC5               	goto	u2331
  2948  04C4  2CC6               	goto	u2330
  2949  04C5                     u2331:
  2950  04C5  2CC7               	goto	l2006
  2951  04C6                     u2330:
  2952  04C6                     l2004:
  2953  04C6  1432               	bsf	___flmul@aexp,0
  2954  04C7                     l2006:
  2955  04C7  0832               	movf	___flmul@aexp,w
  2956  04C8  1903               	btfsc	3,2
  2957  04C9  2CCB               	goto	u2341
  2958  04CA  2CCC               	goto	u2340
  2959  04CB                     u2341:
  2960  04CB  2CDB               	goto	l2014
  2961  04CC                     u2340:
  2962  04CC                     l2008:
  2963  04CC  0A32               	incf	___flmul@aexp,w
  2964  04CD  1D03               	btfss	3,2
  2965  04CE  2CD0               	goto	u2351
  2966  04CF  2CD1               	goto	u2350
  2967  04D0                     u2351:
  2968  04D0  2CD9               	goto	l2012
  2969  04D1                     u2350:
  2970  04D1                     l2010:
  2971  04D1  3000               	movlw	0
  2972  04D2  00A7               	movwf	___flmul@a+3
  2973  04D3  3000               	movlw	0
  2974  04D4  00A6               	movwf	___flmul@a+2
  2975  04D5  3000               	movlw	0
  2976  04D6  00A5               	movwf	___flmul@a+1
  2977  04D7  3000               	movlw	0
  2978  04D8  00A4               	movwf	___flmul@a
  2979  04D9                     l2012:
  2980  04D9  17A6               	bsf	___flmul@a+2,7
  2981  04DA  2CE3               	goto	l2016
  2982  04DB                     l2014:
  2983  04DB  3000               	movlw	0
  2984  04DC  00A7               	movwf	___flmul@a+3
  2985  04DD  3000               	movlw	0
  2986  04DE  00A6               	movwf	___flmul@a+2
  2987  04DF  3000               	movlw	0
  2988  04E0  00A5               	movwf	___flmul@a+1
  2989  04E1  3000               	movlw	0
  2990  04E2  00A4               	movwf	___flmul@a
  2991  04E3                     l2016:
  2992  04E3  0832               	movf	___flmul@aexp,w
  2993  04E4  1903               	btfsc	3,2
  2994  04E5  2CE7               	goto	u2361
  2995  04E6  2CE8               	goto	u2360
  2996  04E7                     u2361:
  2997  04E7  2CED               	goto	l2020
  2998  04E8                     u2360:
  2999  04E8                     l2018:
  3000  04E8  0833               	movf	___flmul@bexp,w
  3001  04E9  1D03               	btfss	3,2
  3002  04EA  2CEC               	goto	u2371
  3003  04EB  2CED               	goto	u2370
  3004  04EC                     u2371:
  3005  04EC  2CF6               	goto	l2024
  3006  04ED                     u2370:
  3007  04ED                     l2020:
  3008  04ED  3000               	movlw	0
  3009  04EE  00A3               	movwf	?___flmul+3
  3010  04EF  3000               	movlw	0
  3011  04F0  00A2               	movwf	?___flmul+2
  3012  04F1  3000               	movlw	0
  3013  04F2  00A1               	movwf	?___flmul+1
  3014  04F3  3000               	movlw	0
  3015  04F4  00A0               	movwf	?___flmul
  3016  04F5  2FE9               	goto	l669
  3017  04F6                     l2024:
  3018  04F6  0820               	movf	___flmul@b,w
  3019  04F7  00A8               	movwf	??___flmul
  3020  04F8  0828               	movf	??___flmul,w
  3021  04F9  00F0               	movwf	__Umul8_16@multiplicand
  3022  04FA  0826               	movf	___flmul@a+2,w
  3023  04FB  120A  158A  231A  120A  118A  	fcall	__Umul8_16
  3024  0500  0871               	movf	?__Umul8_16+1,w
  3025  0501  1283               	bcf	3,5	;RP0=0, select bank0
  3026  0502  1303               	bcf	3,6	;RP1=0, select bank0
  3027  0503  00B9               	movwf	___flmul@temp+1
  3028  0504  0870               	movf	?__Umul8_16,w
  3029  0505  00B8               	movwf	___flmul@temp
  3030  0506                     l2026:
  3031  0506  0838               	movf	___flmul@temp,w
  3032  0507  00A8               	movwf	??___flmul
  3033  0508  01A9               	clrf	??___flmul+1
  3034  0509  01AA               	clrf	??___flmul+2
  3035  050A  01AB               	clrf	??___flmul+3
  3036  050B  082B               	movf	??___flmul+3,w
  3037  050C  00B1               	movwf	___flmul@grs+3
  3038  050D  082A               	movf	??___flmul+2,w
  3039  050E  00B0               	movwf	___flmul@grs+2
  3040  050F  0829               	movf	??___flmul+1,w
  3041  0510  00AF               	movwf	___flmul@grs+1
  3042  0511  0828               	movf	??___flmul,w
  3043  0512  00AE               	movwf	___flmul@grs
  3044  0513                     l2028:
  3045  0513  0839               	movf	___flmul@temp+1,w
  3046  0514  00A8               	movwf	??___flmul
  3047  0515  01A9               	clrf	??___flmul+1
  3048  0516  01AA               	clrf	??___flmul+2
  3049  0517  01AB               	clrf	??___flmul+3
  3050  0518  082B               	movf	??___flmul+3,w
  3051  0519  00B7               	movwf	___flmul@prod+3
  3052  051A  082A               	movf	??___flmul+2,w
  3053  051B  00B6               	movwf	___flmul@prod+2
  3054  051C  0829               	movf	??___flmul+1,w
  3055  051D  00B5               	movwf	___flmul@prod+1
  3056  051E  0828               	movf	??___flmul,w
  3057  051F  00B4               	movwf	___flmul@prod
  3058  0520  0821               	movf	___flmul@b+1,w
  3059  0521  00A8               	movwf	??___flmul
  3060  0522  0828               	movf	??___flmul,w
  3061  0523  00F0               	movwf	__Umul8_16@multiplicand
  3062  0524  0825               	movf	___flmul@a+1,w
  3063  0525  120A  158A  231A  120A  118A  	fcall	__Umul8_16
  3064  052A  0871               	movf	?__Umul8_16+1,w
  3065  052B  1283               	bcf	3,5	;RP0=0, select bank0
  3066  052C  1303               	bcf	3,6	;RP1=0, select bank0
  3067  052D  00B9               	movwf	___flmul@temp+1
  3068  052E  0870               	movf	?__Umul8_16,w
  3069  052F  00B8               	movwf	___flmul@temp
  3070  0530                     l2030:
  3071  0530  0838               	movf	___flmul@temp,w
  3072  0531  00A8               	movwf	??___flmul
  3073  0532  01A9               	clrf	??___flmul+1
  3074  0533  01AA               	clrf	??___flmul+2
  3075  0534  01AB               	clrf	??___flmul+3
  3076  0535  0828               	movf	??___flmul,w
  3077  0536  07AE               	addwf	___flmul@grs,f
  3078  0537  0829               	movf	??___flmul+1,w
  3079  0538  1103               	clrz
  3080  0539  1803               	skipnc
  3081  053A  3E01               	addlw	1
  3082  053B  1903               	skipnz
  3083  053C  2D3E               	goto	u2381
  3084  053D  07AF               	addwf	___flmul@grs+1,f
  3085  053E                     u2381:
  3086  053E  082A               	movf	??___flmul+2,w
  3087  053F  1103               	clrz
  3088  0540  1803               	skipnc
  3089  0541  3E01               	addlw	1
  3090  0542  1903               	skipnz
  3091  0543  2D45               	goto	u2382
  3092  0544  07B0               	addwf	___flmul@grs+2,f
  3093  0545                     u2382:
  3094  0545  082B               	movf	??___flmul+3,w
  3095  0546  1103               	clrz
  3096  0547  1803               	skipnc
  3097  0548  3E01               	addlw	1
  3098  0549  1903               	skipnz
  3099  054A  2D4C               	goto	u2383
  3100  054B  07B1               	addwf	___flmul@grs+3,f
  3101  054C                     u2383:
  3102  054C                     l2032:
  3103  054C  0839               	movf	___flmul@temp+1,w
  3104  054D  00A8               	movwf	??___flmul
  3105  054E  01A9               	clrf	??___flmul+1
  3106  054F  01AA               	clrf	??___flmul+2
  3107  0550  01AB               	clrf	??___flmul+3
  3108  0551  0828               	movf	??___flmul,w
  3109  0552  07B4               	addwf	___flmul@prod,f
  3110  0553  0829               	movf	??___flmul+1,w
  3111  0554  1103               	clrz
  3112  0555  1803               	skipnc
  3113  0556  3E01               	addlw	1
  3114  0557  1903               	skipnz
  3115  0558  2D5A               	goto	u2391
  3116  0559  07B5               	addwf	___flmul@prod+1,f
  3117  055A                     u2391:
  3118  055A  082A               	movf	??___flmul+2,w
  3119  055B  1103               	clrz
  3120  055C  1803               	skipnc
  3121  055D  3E01               	addlw	1
  3122  055E  1903               	skipnz
  3123  055F  2D61               	goto	u2392
  3124  0560  07B6               	addwf	___flmul@prod+2,f
  3125  0561                     u2392:
  3126  0561  082B               	movf	??___flmul+3,w
  3127  0562  1103               	clrz
  3128  0563  1803               	skipnc
  3129  0564  3E01               	addlw	1
  3130  0565  1903               	skipnz
  3131  0566  2D68               	goto	u2393
  3132  0567  07B7               	addwf	___flmul@prod+3,f
  3133  0568                     u2393:
  3134  0568  0822               	movf	___flmul@b+2,w
  3135  0569  00A8               	movwf	??___flmul
  3136  056A  0828               	movf	??___flmul,w
  3137  056B  00F0               	movwf	__Umul8_16@multiplicand
  3138  056C  0824               	movf	___flmul@a,w
  3139  056D  120A  158A  231A  120A  118A  	fcall	__Umul8_16
  3140  0572  0871               	movf	?__Umul8_16+1,w
  3141  0573  1283               	bcf	3,5	;RP0=0, select bank0
  3142  0574  1303               	bcf	3,6	;RP1=0, select bank0
  3143  0575  00B9               	movwf	___flmul@temp+1
  3144  0576  0870               	movf	?__Umul8_16,w
  3145  0577  00B8               	movwf	___flmul@temp
  3146  0578                     l2034:
  3147  0578  0838               	movf	___flmul@temp,w
  3148  0579  00A8               	movwf	??___flmul
  3149  057A  01A9               	clrf	??___flmul+1
  3150  057B  01AA               	clrf	??___flmul+2
  3151  057C  01AB               	clrf	??___flmul+3
  3152  057D  0828               	movf	??___flmul,w
  3153  057E  07AE               	addwf	___flmul@grs,f
  3154  057F  0829               	movf	??___flmul+1,w
  3155  0580  1103               	clrz
  3156  0581  1803               	skipnc
  3157  0582  3E01               	addlw	1
  3158  0583  1903               	skipnz
  3159  0584  2D86               	goto	u2401
  3160  0585  07AF               	addwf	___flmul@grs+1,f
  3161  0586                     u2401:
  3162  0586  082A               	movf	??___flmul+2,w
  3163  0587  1103               	clrz
  3164  0588  1803               	skipnc
  3165  0589  3E01               	addlw	1
  3166  058A  1903               	skipnz
  3167  058B  2D8D               	goto	u2402
  3168  058C  07B0               	addwf	___flmul@grs+2,f
  3169  058D                     u2402:
  3170  058D  082B               	movf	??___flmul+3,w
  3171  058E  1103               	clrz
  3172  058F  1803               	skipnc
  3173  0590  3E01               	addlw	1
  3174  0591  1903               	skipnz
  3175  0592  2D94               	goto	u2403
  3176  0593  07B1               	addwf	___flmul@grs+3,f
  3177  0594                     u2403:
  3178  0594                     l2036:
  3179  0594  0839               	movf	___flmul@temp+1,w
  3180  0595  00A8               	movwf	??___flmul
  3181  0596  01A9               	clrf	??___flmul+1
  3182  0597  01AA               	clrf	??___flmul+2
  3183  0598  01AB               	clrf	??___flmul+3
  3184  0599  0828               	movf	??___flmul,w
  3185  059A  07B4               	addwf	___flmul@prod,f
  3186  059B  0829               	movf	??___flmul+1,w
  3187  059C  1103               	clrz
  3188  059D  1803               	skipnc
  3189  059E  3E01               	addlw	1
  3190  059F  1903               	skipnz
  3191  05A0  2DA2               	goto	u2411
  3192  05A1  07B5               	addwf	___flmul@prod+1,f
  3193  05A2                     u2411:
  3194  05A2  082A               	movf	??___flmul+2,w
  3195  05A3  1103               	clrz
  3196  05A4  1803               	skipnc
  3197  05A5  3E01               	addlw	1
  3198  05A6  1903               	skipnz
  3199  05A7  2DA9               	goto	u2412
  3200  05A8  07B6               	addwf	___flmul@prod+2,f
  3201  05A9                     u2412:
  3202  05A9  082B               	movf	??___flmul+3,w
  3203  05AA  1103               	clrz
  3204  05AB  1803               	skipnc
  3205  05AC  3E01               	addlw	1
  3206  05AD  1903               	skipnz
  3207  05AE  2DB0               	goto	u2413
  3208  05AF  07B7               	addwf	___flmul@prod+3,f
  3209  05B0                     u2413:
  3210  05B0                     l2038:
  3211  05B0  3008               	movlw	8
  3212  05B1  00A8               	movwf	??___flmul
  3213  05B2                     u2425:
  3214  05B2  1003               	clrc
  3215  05B3  0DAE               	rlf	___flmul@grs,f
  3216  05B4  0DAF               	rlf	___flmul@grs+1,f
  3217  05B5  0DB0               	rlf	___flmul@grs+2,f
  3218  05B6  0DB1               	rlf	___flmul@grs+3,f
  3219  05B7  0BA8               	decfsz	??___flmul,f
  3220  05B8  2DB2               	goto	u2425
  3221  05B9                     l2040:
  3222  05B9  0821               	movf	___flmul@b+1,w
  3223  05BA  00A8               	movwf	??___flmul
  3224  05BB  0828               	movf	??___flmul,w
  3225  05BC  00F0               	movwf	__Umul8_16@multiplicand
  3226  05BD  0824               	movf	___flmul@a,w
  3227  05BE  120A  158A  231A  120A  118A  	fcall	__Umul8_16
  3228  05C3  0871               	movf	?__Umul8_16+1,w
  3229  05C4  1283               	bcf	3,5	;RP0=0, select bank0
  3230  05C5  1303               	bcf	3,6	;RP1=0, select bank0
  3231  05C6  00B9               	movwf	___flmul@temp+1
  3232  05C7  0870               	movf	?__Umul8_16,w
  3233  05C8  00B8               	movwf	___flmul@temp
  3234  05C9                     l2042:
  3235  05C9  0838               	movf	___flmul@temp,w
  3236  05CA  00A8               	movwf	??___flmul
  3237  05CB  0839               	movf	___flmul@temp+1,w
  3238  05CC  00A9               	movwf	??___flmul+1
  3239  05CD  01AA               	clrf	??___flmul+2
  3240  05CE  01AB               	clrf	??___flmul+3
  3241  05CF  0828               	movf	??___flmul,w
  3242  05D0  07AE               	addwf	___flmul@grs,f
  3243  05D1  0829               	movf	??___flmul+1,w
  3244  05D2  1103               	clrz
  3245  05D3  1803               	skipnc
  3246  05D4  3E01               	addlw	1
  3247  05D5  1903               	skipnz
  3248  05D6  2DD8               	goto	u2431
  3249  05D7  07AF               	addwf	___flmul@grs+1,f
  3250  05D8                     u2431:
  3251  05D8  082A               	movf	??___flmul+2,w
  3252  05D9  1103               	clrz
  3253  05DA  1803               	skipnc
  3254  05DB  3E01               	addlw	1
  3255  05DC  1903               	skipnz
  3256  05DD  2DDF               	goto	u2432
  3257  05DE  07B0               	addwf	___flmul@grs+2,f
  3258  05DF                     u2432:
  3259  05DF  082B               	movf	??___flmul+3,w
  3260  05E0  1103               	clrz
  3261  05E1  1803               	skipnc
  3262  05E2  3E01               	addlw	1
  3263  05E3  1903               	skipnz
  3264  05E4  2DE6               	goto	u2433
  3265  05E5  07B1               	addwf	___flmul@grs+3,f
  3266  05E6                     u2433:
  3267  05E6                     l2044:
  3268  05E6  0820               	movf	___flmul@b,w
  3269  05E7  00A8               	movwf	??___flmul
  3270  05E8  0828               	movf	??___flmul,w
  3271  05E9  00F0               	movwf	__Umul8_16@multiplicand
  3272  05EA  0825               	movf	___flmul@a+1,w
  3273  05EB  120A  158A  231A  120A  118A  	fcall	__Umul8_16
  3274  05F0  0871               	movf	?__Umul8_16+1,w
  3275  05F1  1283               	bcf	3,5	;RP0=0, select bank0
  3276  05F2  1303               	bcf	3,6	;RP1=0, select bank0
  3277  05F3  00B9               	movwf	___flmul@temp+1
  3278  05F4  0870               	movf	?__Umul8_16,w
  3279  05F5  00B8               	movwf	___flmul@temp
  3280  05F6                     l2046:
  3281  05F6  0838               	movf	___flmul@temp,w
  3282  05F7  00A8               	movwf	??___flmul
  3283  05F8  0839               	movf	___flmul@temp+1,w
  3284  05F9  00A9               	movwf	??___flmul+1
  3285  05FA  01AA               	clrf	??___flmul+2
  3286  05FB  01AB               	clrf	??___flmul+3
  3287  05FC  0828               	movf	??___flmul,w
  3288  05FD  07AE               	addwf	___flmul@grs,f
  3289  05FE  0829               	movf	??___flmul+1,w
  3290  05FF  1103               	clrz
  3291  0600  1803               	skipnc
  3292  0601  3E01               	addlw	1
  3293  0602  1903               	skipnz
  3294  0603  2E05               	goto	u2441
  3295  0604  07AF               	addwf	___flmul@grs+1,f
  3296  0605                     u2441:
  3297  0605  082A               	movf	??___flmul+2,w
  3298  0606  1103               	clrz
  3299  0607  1803               	skipnc
  3300  0608  3E01               	addlw	1
  3301  0609  1903               	skipnz
  3302  060A  2E0C               	goto	u2442
  3303  060B  07B0               	addwf	___flmul@grs+2,f
  3304  060C                     u2442:
  3305  060C  082B               	movf	??___flmul+3,w
  3306  060D  1103               	clrz
  3307  060E  1803               	skipnc
  3308  060F  3E01               	addlw	1
  3309  0610  1903               	skipnz
  3310  0611  2E13               	goto	u2443
  3311  0612  07B1               	addwf	___flmul@grs+3,f
  3312  0613                     u2443:
  3313  0613                     l2048:
  3314  0613  3008               	movlw	8
  3315  0614  00A8               	movwf	??___flmul
  3316  0615                     u2455:
  3317  0615  1003               	clrc
  3318  0616  0DAE               	rlf	___flmul@grs,f
  3319  0617  0DAF               	rlf	___flmul@grs+1,f
  3320  0618  0DB0               	rlf	___flmul@grs+2,f
  3321  0619  0DB1               	rlf	___flmul@grs+3,f
  3322  061A  0BA8               	decfsz	??___flmul,f
  3323  061B  2E15               	goto	u2455
  3324  061C  0820               	movf	___flmul@b,w
  3325  061D  00A8               	movwf	??___flmul
  3326  061E  0828               	movf	??___flmul,w
  3327  061F  00F0               	movwf	__Umul8_16@multiplicand
  3328  0620  0824               	movf	___flmul@a,w
  3329  0621  120A  158A  231A  120A  118A  	fcall	__Umul8_16
  3330  0626  0871               	movf	?__Umul8_16+1,w
  3331  0627  1283               	bcf	3,5	;RP0=0, select bank0
  3332  0628  1303               	bcf	3,6	;RP1=0, select bank0
  3333  0629  00B9               	movwf	___flmul@temp+1
  3334  062A  0870               	movf	?__Umul8_16,w
  3335  062B  00B8               	movwf	___flmul@temp
  3336  062C                     l2050:
  3337  062C  0838               	movf	___flmul@temp,w
  3338  062D  00A8               	movwf	??___flmul
  3339  062E  0839               	movf	___flmul@temp+1,w
  3340  062F  00A9               	movwf	??___flmul+1
  3341  0630  01AA               	clrf	??___flmul+2
  3342  0631  01AB               	clrf	??___flmul+3
  3343  0632  0828               	movf	??___flmul,w
  3344  0633  07AE               	addwf	___flmul@grs,f
  3345  0634  0829               	movf	??___flmul+1,w
  3346  0635  1103               	clrz
  3347  0636  1803               	skipnc
  3348  0637  3E01               	addlw	1
  3349  0638  1903               	skipnz
  3350  0639  2E3B               	goto	u2461
  3351  063A  07AF               	addwf	___flmul@grs+1,f
  3352  063B                     u2461:
  3353  063B  082A               	movf	??___flmul+2,w
  3354  063C  1103               	clrz
  3355  063D  1803               	skipnc
  3356  063E  3E01               	addlw	1
  3357  063F  1903               	skipnz
  3358  0640  2E42               	goto	u2462
  3359  0641  07B0               	addwf	___flmul@grs+2,f
  3360  0642                     u2462:
  3361  0642  082B               	movf	??___flmul+3,w
  3362  0643  1103               	clrz
  3363  0644  1803               	skipnc
  3364  0645  3E01               	addlw	1
  3365  0646  1903               	skipnz
  3366  0647  2E49               	goto	u2463
  3367  0648  07B1               	addwf	___flmul@grs+3,f
  3368  0649                     u2463:
  3369  0649                     l2052:
  3370  0649  0821               	movf	___flmul@b+1,w
  3371  064A  00A8               	movwf	??___flmul
  3372  064B  0828               	movf	??___flmul,w
  3373  064C  00F0               	movwf	__Umul8_16@multiplicand
  3374  064D  0826               	movf	___flmul@a+2,w
  3375  064E  120A  158A  231A  120A  118A  	fcall	__Umul8_16
  3376  0653  0871               	movf	?__Umul8_16+1,w
  3377  0654  1283               	bcf	3,5	;RP0=0, select bank0
  3378  0655  1303               	bcf	3,6	;RP1=0, select bank0
  3379  0656  00B9               	movwf	___flmul@temp+1
  3380  0657  0870               	movf	?__Umul8_16,w
  3381  0658  00B8               	movwf	___flmul@temp
  3382  0659  0838               	movf	___flmul@temp,w
  3383  065A  00A8               	movwf	??___flmul
  3384  065B  0839               	movf	___flmul@temp+1,w
  3385  065C  00A9               	movwf	??___flmul+1
  3386  065D  01AA               	clrf	??___flmul+2
  3387  065E  01AB               	clrf	??___flmul+3
  3388  065F  0828               	movf	??___flmul,w
  3389  0660  07B4               	addwf	___flmul@prod,f
  3390  0661  0829               	movf	??___flmul+1,w
  3391  0662  1103               	clrz
  3392  0663  1803               	skipnc
  3393  0664  3E01               	addlw	1
  3394  0665  1903               	skipnz
  3395  0666  2E68               	goto	u2471
  3396  0667  07B5               	addwf	___flmul@prod+1,f
  3397  0668                     u2471:
  3398  0668  082A               	movf	??___flmul+2,w
  3399  0669  1103               	clrz
  3400  066A  1803               	skipnc
  3401  066B  3E01               	addlw	1
  3402  066C  1903               	skipnz
  3403  066D  2E6F               	goto	u2472
  3404  066E  07B6               	addwf	___flmul@prod+2,f
  3405  066F                     u2472:
  3406  066F  082B               	movf	??___flmul+3,w
  3407  0670  1103               	clrz
  3408  0671  1803               	skipnc
  3409  0672  3E01               	addlw	1
  3410  0673  1903               	skipnz
  3411  0674  2E76               	goto	u2473
  3412  0675  07B7               	addwf	___flmul@prod+3,f
  3413  0676                     u2473:
  3414  0676                     l2054:
  3415  0676  0822               	movf	___flmul@b+2,w
  3416  0677  00A8               	movwf	??___flmul
  3417  0678  0828               	movf	??___flmul,w
  3418  0679  00F0               	movwf	__Umul8_16@multiplicand
  3419  067A  0825               	movf	___flmul@a+1,w
  3420  067B  120A  158A  231A  120A  118A  	fcall	__Umul8_16
  3421  0680  0871               	movf	?__Umul8_16+1,w
  3422  0681  1283               	bcf	3,5	;RP0=0, select bank0
  3423  0682  1303               	bcf	3,6	;RP1=0, select bank0
  3424  0683  00B9               	movwf	___flmul@temp+1
  3425  0684  0870               	movf	?__Umul8_16,w
  3426  0685  00B8               	movwf	___flmul@temp
  3427  0686                     l2056:
  3428  0686  0838               	movf	___flmul@temp,w
  3429  0687  00A8               	movwf	??___flmul
  3430  0688  0839               	movf	___flmul@temp+1,w
  3431  0689  00A9               	movwf	??___flmul+1
  3432  068A  01AA               	clrf	??___flmul+2
  3433  068B  01AB               	clrf	??___flmul+3
  3434  068C  0828               	movf	??___flmul,w
  3435  068D  07B4               	addwf	___flmul@prod,f
  3436  068E  0829               	movf	??___flmul+1,w
  3437  068F  1103               	clrz
  3438  0690  1803               	skipnc
  3439  0691  3E01               	addlw	1
  3440  0692  1903               	skipnz
  3441  0693  2E95               	goto	u2481
  3442  0694  07B5               	addwf	___flmul@prod+1,f
  3443  0695                     u2481:
  3444  0695  082A               	movf	??___flmul+2,w
  3445  0696  1103               	clrz
  3446  0697  1803               	skipnc
  3447  0698  3E01               	addlw	1
  3448  0699  1903               	skipnz
  3449  069A  2E9C               	goto	u2482
  3450  069B  07B6               	addwf	___flmul@prod+2,f
  3451  069C                     u2482:
  3452  069C  082B               	movf	??___flmul+3,w
  3453  069D  1103               	clrz
  3454  069E  1803               	skipnc
  3455  069F  3E01               	addlw	1
  3456  06A0  1903               	skipnz
  3457  06A1  2EA3               	goto	u2483
  3458  06A2  07B7               	addwf	___flmul@prod+3,f
  3459  06A3                     u2483:
  3460  06A3  0822               	movf	___flmul@b+2,w
  3461  06A4  00A8               	movwf	??___flmul
  3462  06A5  0828               	movf	??___flmul,w
  3463  06A6  00F0               	movwf	__Umul8_16@multiplicand
  3464  06A7  0826               	movf	___flmul@a+2,w
  3465  06A8  120A  158A  231A  120A  118A  	fcall	__Umul8_16
  3466  06AD  0871               	movf	?__Umul8_16+1,w
  3467  06AE  1283               	bcf	3,5	;RP0=0, select bank0
  3468  06AF  1303               	bcf	3,6	;RP1=0, select bank0
  3469  06B0  00B9               	movwf	___flmul@temp+1
  3470  06B1  0870               	movf	?__Umul8_16,w
  3471  06B2  00B8               	movwf	___flmul@temp
  3472  06B3                     l2058:
  3473  06B3  0838               	movf	___flmul@temp,w
  3474  06B4  00A8               	movwf	??___flmul
  3475  06B5  0839               	movf	___flmul@temp+1,w
  3476  06B6  00A9               	movwf	??___flmul+1
  3477  06B7  01AA               	clrf	??___flmul+2
  3478  06B8  01AB               	clrf	??___flmul+3
  3479  06B9  3008               	movlw	8
  3480  06BA                     u2495:
  3481  06BA  1003               	clrc
  3482  06BB  0DA8               	rlf	??___flmul,f
  3483  06BC  0DA9               	rlf	??___flmul+1,f
  3484  06BD  0DAA               	rlf	??___flmul+2,f
  3485  06BE  0DAB               	rlf	??___flmul+3,f
  3486  06BF                     u2490:
  3487  06BF  3EFF               	addlw	-1
  3488  06C0  1D03               	skipz
  3489  06C1  2EBA               	goto	u2495
  3490  06C2  0828               	movf	??___flmul,w
  3491  06C3  07B4               	addwf	___flmul@prod,f
  3492  06C4  0829               	movf	??___flmul+1,w
  3493  06C5  1103               	clrz
  3494  06C6  1803               	skipnc
  3495  06C7  3E01               	addlw	1
  3496  06C8  1903               	skipnz
  3497  06C9  2ECB               	goto	u2501
  3498  06CA  07B5               	addwf	___flmul@prod+1,f
  3499  06CB                     u2501:
  3500  06CB  082A               	movf	??___flmul+2,w
  3501  06CC  1103               	clrz
  3502  06CD  1803               	skipnc
  3503  06CE  3E01               	addlw	1
  3504  06CF  1903               	skipnz
  3505  06D0  2ED2               	goto	u2502
  3506  06D1  07B6               	addwf	___flmul@prod+2,f
  3507  06D2                     u2502:
  3508  06D2  082B               	movf	??___flmul+3,w
  3509  06D3  1103               	clrz
  3510  06D4  1803               	skipnc
  3511  06D5  3E01               	addlw	1
  3512  06D6  1903               	skipnz
  3513  06D7  2ED9               	goto	u2503
  3514  06D8  07B7               	addwf	___flmul@prod+3,f
  3515  06D9                     u2503:
  3516  06D9                     l2060:
  3517  06D9  082E               	movf	___flmul@grs,w
  3518  06DA  00A8               	movwf	??___flmul
  3519  06DB  082F               	movf	___flmul@grs+1,w
  3520  06DC  00A9               	movwf	??___flmul+1
  3521  06DD  0830               	movf	___flmul@grs+2,w
  3522  06DE  00AA               	movwf	??___flmul+2
  3523  06DF  0831               	movf	___flmul@grs+3,w
  3524  06E0  00AB               	movwf	??___flmul+3
  3525  06E1  3018               	movlw	24
  3526  06E2                     u2515:
  3527  06E2  1003               	clrc
  3528  06E3  0CAB               	rrf	??___flmul+3,f
  3529  06E4  0CAA               	rrf	??___flmul+2,f
  3530  06E5  0CA9               	rrf	??___flmul+1,f
  3531  06E6  0CA8               	rrf	??___flmul,f
  3532  06E7                     u2510:
  3533  06E7  3EFF               	addlw	-1
  3534  06E8  1D03               	skipz
  3535  06E9  2EE2               	goto	u2515
  3536  06EA  0828               	movf	??___flmul,w
  3537  06EB  07B4               	addwf	___flmul@prod,f
  3538  06EC  0829               	movf	??___flmul+1,w
  3539  06ED  1103               	clrz
  3540  06EE  1803               	skipnc
  3541  06EF  3E01               	addlw	1
  3542  06F0  1903               	skipnz
  3543  06F1  2EF3               	goto	u2521
  3544  06F2  07B5               	addwf	___flmul@prod+1,f
  3545  06F3                     u2521:
  3546  06F3  082A               	movf	??___flmul+2,w
  3547  06F4  1103               	clrz
  3548  06F5  1803               	skipnc
  3549  06F6  3E01               	addlw	1
  3550  06F7  1903               	skipnz
  3551  06F8  2EFA               	goto	u2522
  3552  06F9  07B6               	addwf	___flmul@prod+2,f
  3553  06FA                     u2522:
  3554  06FA  082B               	movf	??___flmul+3,w
  3555  06FB  1103               	clrz
  3556  06FC  1803               	skipnc
  3557  06FD  3E01               	addlw	1
  3558  06FE  1903               	skipnz
  3559  06FF  2F01               	goto	u2523
  3560  0700  07B7               	addwf	___flmul@prod+3,f
  3561  0701                     u2523:
  3562  0701                     l2062:
  3563  0701  3008               	movlw	8
  3564  0702  00A8               	movwf	??___flmul
  3565  0703                     u2535:
  3566  0703  1003               	clrc
  3567  0704  0DAE               	rlf	___flmul@grs,f
  3568  0705  0DAF               	rlf	___flmul@grs+1,f
  3569  0706  0DB0               	rlf	___flmul@grs+2,f
  3570  0707  0DB1               	rlf	___flmul@grs+3,f
  3571  0708  0BA8               	decfsz	??___flmul,f
  3572  0709  2F03               	goto	u2535
  3573  070A                     l2064:
  3574  070A  0833               	movf	___flmul@bexp,w
  3575  070B  0732               	addwf	___flmul@aexp,w
  3576  070C  00A8               	movwf	??___flmul
  3577  070D  01A9               	clrf	??___flmul+1
  3578  070E  0DA9               	rlf	??___flmul+1,f
  3579  070F  0828               	movf	??___flmul,w
  3580  0710  3E82               	addlw	130
  3581  0711  00B8               	movwf	___flmul@temp
  3582  0712  0829               	movf	??___flmul+1,w
  3583  0713  1803               	skipnc
  3584  0714  3E01               	addlw	1
  3585  0715  3EFF               	addlw	255
  3586  0716  00B9               	movwf	___flmul@temp+1
  3587  0717  2F35               	goto	l2076
  3588  0718                     l2066:
  3589  0718  3001               	movlw	1
  3590  0719  00A8               	movwf	??___flmul
  3591  071A                     u2545:
  3592  071A  1003               	clrc
  3593  071B  0DB4               	rlf	___flmul@prod,f
  3594  071C  0DB5               	rlf	___flmul@prod+1,f
  3595  071D  0DB6               	rlf	___flmul@prod+2,f
  3596  071E  0DB7               	rlf	___flmul@prod+3,f
  3597  071F  0BA8               	decfsz	??___flmul,f
  3598  0720  2F1A               	goto	u2545
  3599  0721                     l2068:
  3600  0721  1FB1               	btfss	___flmul@grs+3,7
  3601  0722  2F24               	goto	u2551
  3602  0723  2F25               	goto	u2550
  3603  0724                     u2551:
  3604  0724  2F26               	goto	l2072
  3605  0725                     u2550:
  3606  0725                     l2070:
  3607  0725  1434               	bsf	___flmul@prod,0
  3608  0726                     l2072:
  3609  0726  3001               	movlw	1
  3610  0727  00A8               	movwf	??___flmul
  3611  0728                     u2565:
  3612  0728  1003               	clrc
  3613  0729  0DAE               	rlf	___flmul@grs,f
  3614  072A  0DAF               	rlf	___flmul@grs+1,f
  3615  072B  0DB0               	rlf	___flmul@grs+2,f
  3616  072C  0DB1               	rlf	___flmul@grs+3,f
  3617  072D  0BA8               	decfsz	??___flmul,f
  3618  072E  2F28               	goto	u2565
  3619  072F                     l2074:
  3620  072F  30FF               	movlw	255
  3621  0730  07B8               	addwf	___flmul@temp,f
  3622  0731  1803               	skipnc
  3623  0732  0AB9               	incf	___flmul@temp+1,f
  3624  0733  30FF               	movlw	255
  3625  0734  07B9               	addwf	___flmul@temp+1,f
  3626  0735                     l2076:
  3627  0735  1FB6               	btfss	___flmul@prod+2,7
  3628  0736  2F38               	goto	u2571
  3629  0737  2F39               	goto	u2570
  3630  0738                     u2571:
  3631  0738  2F18               	goto	l2066
  3632  0739                     u2570:
  3633  0739                     l2078:
  3634  0739  01B2               	clrf	___flmul@aexp
  3635  073A                     l2080:
  3636  073A  1FB1               	btfss	___flmul@grs+3,7
  3637  073B  2F3D               	goto	u2581
  3638  073C  2F3E               	goto	u2580
  3639  073D                     u2581:
  3640  073D  2F5A               	goto	l2088
  3641  073E                     u2580:
  3642  073E                     l2082:
  3643  073E  30FF               	movlw	255
  3644  073F  052E               	andwf	___flmul@grs,w
  3645  0740  00A8               	movwf	??___flmul
  3646  0741  30FF               	movlw	255
  3647  0742  052F               	andwf	___flmul@grs+1,w
  3648  0743  00A9               	movwf	??___flmul+1
  3649  0744  30FF               	movlw	255
  3650  0745  0530               	andwf	___flmul@grs+2,w
  3651  0746  00AA               	movwf	??___flmul+2
  3652  0747  307F               	movlw	127
  3653  0748  0531               	andwf	___flmul@grs+3,w
  3654  0749  00AB               	movwf	??___flmul+3
  3655  074A  082B               	movf	??___flmul+3,w
  3656  074B  042A               	iorwf	??___flmul+2,w
  3657  074C  0429               	iorwf	??___flmul+1,w
  3658  074D  0428               	iorwf	??___flmul,w
  3659  074E  1903               	skipnz
  3660  074F  2F51               	goto	u2591
  3661  0750  2F52               	goto	u2590
  3662  0751                     u2591:
  3663  0751  2F55               	goto	l675
  3664  0752                     u2590:
  3665  0752                     l2084:
  3666  0752  01B2               	clrf	___flmul@aexp
  3667  0753  0AB2               	incf	___flmul@aexp,f
  3668  0754  2F5A               	goto	l2088
  3669  0755                     l675:
  3670  0755  1C34               	btfss	___flmul@prod,0
  3671  0756  2F58               	goto	u2601
  3672  0757  2F59               	goto	u2600
  3673  0758                     u2601:
  3674  0758  2F5A               	goto	l2088
  3675  0759                     u2600:
  3676  0759  2F52               	goto	l2084
  3677  075A                     l2088:
  3678  075A  0832               	movf	___flmul@aexp,w
  3679  075B  1903               	btfsc	3,2
  3680  075C  2F5E               	goto	u2611
  3681  075D  2F5F               	goto	u2610
  3682  075E                     u2611:
  3683  075E  2F90               	goto	l2098
  3684  075F                     u2610:
  3685  075F                     l2090:
  3686  075F  3001               	movlw	1
  3687  0760  07B4               	addwf	___flmul@prod,f
  3688  0761  3000               	movlw	0
  3689  0762  1803               	skipnc
  3690  0763  3001               	movlw	1
  3691  0764  07B5               	addwf	___flmul@prod+1,f
  3692  0765  3000               	movlw	0
  3693  0766  1803               	skipnc
  3694  0767  3001               	movlw	1
  3695  0768  07B6               	addwf	___flmul@prod+2,f
  3696  0769  3000               	movlw	0
  3697  076A  1803               	skipnc
  3698  076B  3001               	movlw	1
  3699  076C  07B7               	addwf	___flmul@prod+3,f
  3700  076D                     l2092:
  3701  076D  1C37               	btfss	___flmul@prod+3,0
  3702  076E  2F70               	goto	u2621
  3703  076F  2F71               	goto	u2620
  3704  0770                     u2621:
  3705  0770  2F90               	goto	l2098
  3706  0771                     u2620:
  3707  0771                     l2094:
  3708  0771  0834               	movf	___flmul@prod,w
  3709  0772  00A8               	movwf	??___flmul
  3710  0773  0835               	movf	___flmul@prod+1,w
  3711  0774  00A9               	movwf	??___flmul+1
  3712  0775  0836               	movf	___flmul@prod+2,w
  3713  0776  00AA               	movwf	??___flmul+2
  3714  0777  0837               	movf	___flmul@prod+3,w
  3715  0778  00AB               	movwf	??___flmul+3
  3716  0779  3001               	movlw	1
  3717  077A  00AC               	movwf	??___flmul+4
  3718  077B                     u2635:
  3719  077B  0D2B               	rlf	??___flmul+3,w
  3720  077C  0CAB               	rrf	??___flmul+3,f
  3721  077D  0CAA               	rrf	??___flmul+2,f
  3722  077E  0CA9               	rrf	??___flmul+1,f
  3723  077F  0CA8               	rrf	??___flmul,f
  3724  0780                     u2630:
  3725  0780  0BAC               	decfsz	??___flmul+4,f
  3726  0781  2F7B               	goto	u2635
  3727  0782  082B               	movf	??___flmul+3,w
  3728  0783  00B7               	movwf	___flmul@prod+3
  3729  0784  082A               	movf	??___flmul+2,w
  3730  0785  00B6               	movwf	___flmul@prod+2
  3731  0786  0829               	movf	??___flmul+1,w
  3732  0787  00B5               	movwf	___flmul@prod+1
  3733  0788  0828               	movf	??___flmul,w
  3734  0789  00B4               	movwf	___flmul@prod
  3735  078A                     l2096:
  3736  078A  3001               	movlw	1
  3737  078B  07B8               	addwf	___flmul@temp,f
  3738  078C  1803               	skipnc
  3739  078D  0AB9               	incf	___flmul@temp+1,f
  3740  078E  3000               	movlw	0
  3741  078F  07B9               	addwf	___flmul@temp+1,f
  3742  0790                     l2098:
  3743  0790  0839               	movf	___flmul@temp+1,w
  3744  0791  3A80               	xorlw	128
  3745  0792  00FF               	movwf	btemp+1
  3746  0793  3080               	movlw	128
  3747  0794  027F               	subwf	btemp+1,w
  3748  0795  1D03               	skipz
  3749  0796  2F99               	goto	u2645
  3750  0797  30FF               	movlw	255
  3751  0798  0238               	subwf	___flmul@temp,w
  3752  0799                     u2645:
  3753  0799  1C03               	skipc
  3754  079A  2F9C               	goto	u2641
  3755  079B  2F9D               	goto	u2640
  3756  079C                     u2641:
  3757  079C  2FA8               	goto	l2102
  3758  079D                     u2640:
  3759  079D                     l2100:
  3760  079D  307F               	movlw	127
  3761  079E  1283               	bcf	3,5	;RP0=0, select bank0
  3762  079F  1303               	bcf	3,6	;RP1=0, select bank0
  3763  07A0  00B7               	movwf	___flmul@prod+3
  3764  07A1  3080               	movlw	128
  3765  07A2  00B6               	movwf	___flmul@prod+2
  3766  07A3  3000               	movlw	0
  3767  07A4  00B5               	movwf	___flmul@prod+1
  3768  07A5  3000               	movlw	0
  3769  07A6  00B4               	movwf	___flmul@prod
  3770  07A7  2FDD               	goto	l681
  3771  07A8                     l2102:
  3772  07A8  1283               	bcf	3,5	;RP0=0, select bank0
  3773  07A9  1303               	bcf	3,6	;RP1=0, select bank0
  3774  07AA  0839               	movf	___flmul@temp+1,w
  3775  07AB  3A80               	xorlw	128
  3776  07AC  00FF               	movwf	btemp+1
  3777  07AD  3080               	movlw	128
  3778  07AE  027F               	subwf	btemp+1,w
  3779  07AF  1D03               	skipz
  3780  07B0  2FB3               	goto	u2655
  3781  07B1  3001               	movlw	1
  3782  07B2  0238               	subwf	___flmul@temp,w
  3783  07B3                     u2655:
  3784  07B3  1803               	skipnc
  3785  07B4  2FB6               	goto	u2651
  3786  07B5  2FB7               	goto	u2650
  3787  07B6                     u2651:
  3788  07B6  2FC3               	goto	l2108
  3789  07B7                     u2650:
  3790  07B7                     l2104:
  3791  07B7  3000               	movlw	0
  3792  07B8  1283               	bcf	3,5	;RP0=0, select bank0
  3793  07B9  1303               	bcf	3,6	;RP1=0, select bank0
  3794  07BA  00B7               	movwf	___flmul@prod+3
  3795  07BB  3000               	movlw	0
  3796  07BC  00B6               	movwf	___flmul@prod+2
  3797  07BD  3000               	movlw	0
  3798  07BE  00B5               	movwf	___flmul@prod+1
  3799  07BF  3000               	movlw	0
  3800  07C0  00B4               	movwf	___flmul@prod
  3801  07C1                     l2106:
  3802  07C1  01AD               	clrf	___flmul@sign
  3803  07C2  2FDD               	goto	l681
  3804  07C3                     l2108:
  3805  07C3  1283               	bcf	3,5	;RP0=0, select bank0
  3806  07C4  1303               	bcf	3,6	;RP1=0, select bank0
  3807  07C5  0838               	movf	___flmul@temp,w
  3808  07C6  00A8               	movwf	??___flmul
  3809  07C7  0828               	movf	??___flmul,w
  3810  07C8  00B3               	movwf	___flmul@bexp
  3811  07C9  30FF               	movlw	255
  3812  07CA  05B4               	andwf	___flmul@prod,f
  3813  07CB  30FF               	movlw	255
  3814  07CC  05B5               	andwf	___flmul@prod+1,f
  3815  07CD  307F               	movlw	127
  3816  07CE  05B6               	andwf	___flmul@prod+2,f
  3817  07CF  3000               	movlw	0
  3818  07D0  05B7               	andwf	___flmul@prod+3,f
  3819  07D1                     l2110:
  3820  07D1  1C33               	btfss	___flmul@bexp,0
  3821  07D2  2FD4               	goto	u2661
  3822  07D3  2FD5               	goto	u2660
  3823  07D4                     u2661:
  3824  07D4  2FD6               	goto	l2114
  3825  07D5                     u2660:
  3826  07D5                     l2112:
  3827  07D5  17B6               	bsf	___flmul@prod+2,7
  3828  07D6                     l2114:
  3829  07D6  0833               	movf	___flmul@bexp,w
  3830  07D7  00A8               	movwf	??___flmul
  3831  07D8  1003               	clrc
  3832  07D9  0C28               	rrf	??___flmul,w
  3833  07DA  00A9               	movwf	??___flmul+1
  3834  07DB  0829               	movf	??___flmul+1,w
  3835  07DC  00B7               	movwf	___flmul@prod+3
  3836  07DD                     l681:
  3837  07DD  082D               	movf	___flmul@sign,w
  3838  07DE  00A8               	movwf	??___flmul
  3839  07DF  0828               	movf	??___flmul,w
  3840  07E0  04B7               	iorwf	___flmul@prod+3,f
  3841  07E1                     l2116:
  3842  07E1  0837               	movf	___flmul@prod+3,w
  3843  07E2  00A3               	movwf	?___flmul+3
  3844  07E3  0836               	movf	___flmul@prod+2,w
  3845  07E4  00A2               	movwf	?___flmul+2
  3846  07E5  0835               	movf	___flmul@prod+1,w
  3847  07E6  00A1               	movwf	?___flmul+1
  3848  07E7  0834               	movf	___flmul@prod,w
  3849  07E8  00A0               	movwf	?___flmul
  3850  07E9                     l669:
  3851  07E9  0008               	return
  3852  07EA                     __end_of___flmul:
  3853                           
  3854                           	psect	text10
  3855  0B1A                     __ptext10:	
  3856 ;; *************** function __Umul8_16 *****************
  3857 ;; Defined at:
  3858 ;;		line 4 in file "C:\Program Files\Microchip\xc8\v2.31\pic\sources\c90\common\Umul8_16.c"
  3859 ;; Parameters:    Size  Location     Type
  3860 ;;  multiplier      1    wreg     unsigned char 
  3861 ;;  multiplicand    1    0[COMMON] unsigned char 
  3862 ;; Auto vars:     Size  Location     Type
  3863 ;;  multiplier      1    8[COMMON] unsigned char 
  3864 ;;  word_mpld       2    6[COMMON] unsigned int 
  3865 ;;  product         2    4[COMMON] unsigned int 
  3866 ;; Return value:  Size  Location     Type
  3867 ;;                  2    0[COMMON] unsigned int 
  3868 ;; Registers used:
  3869 ;;		wreg, status,2, status,0
  3870 ;; Tracked objects:
  3871 ;;		On entry : 0/0
  3872 ;;		On exit  : 0/0
  3873 ;;		Unchanged: 0/0
  3874 ;; Data sizes:     COMMON   BANK0   BANK1   BANK3   BANK2
  3875 ;;      Params:         2       0       0       0       0
  3876 ;;      Locals:         5       0       0       0       0
  3877 ;;      Temps:          2       0       0       0       0
  3878 ;;      Totals:         9       0       0       0       0
  3879 ;;Total ram usage:        9 bytes
  3880 ;; Hardware stack levels used:    1
  3881 ;; This function calls:
  3882 ;;		Nothing
  3883 ;; This function is called by:
  3884 ;;		___flmul
  3885 ;; This function uses a non-reentrant model
  3886 ;;
  3887                           
  3888                           
  3889                           ;psect for function __Umul8_16
  3890  0B1A                     __Umul8_16:
  3891                           
  3892                           ;incstack = 0
  3893                           ; Regs used in __Umul8_16: [wreg+status,2+status,0]
  3894                           ;__Umul8_16@multiplier stored from wreg
  3895  0B1A  00F8               	movwf	__Umul8_16@multiplier
  3896  0B1B                     l1632:
  3897  0B1B  01F4               	clrf	__Umul8_16@product
  3898  0B1C  01F5               	clrf	__Umul8_16@product+1
  3899  0B1D                     l1634:
  3900  0B1D  0870               	movf	__Umul8_16@multiplicand,w
  3901  0B1E  00F2               	movwf	??__Umul8_16
  3902  0B1F  01F3               	clrf	??__Umul8_16+1
  3903  0B20  0872               	movf	??__Umul8_16,w
  3904  0B21  00F6               	movwf	__Umul8_16@word_mpld
  3905  0B22  0873               	movf	??__Umul8_16+1,w
  3906  0B23  00F7               	movwf	__Umul8_16@word_mpld+1
  3907  0B24                     l1636:
  3908  0B24  1C78               	btfss	__Umul8_16@multiplier,0
  3909  0B25  2B27               	goto	u1551
  3910  0B26  2B28               	goto	u1550
  3911  0B27                     u1551:
  3912  0B27  2B2E               	goto	l688
  3913  0B28                     u1550:
  3914  0B28                     l1638:
  3915  0B28  0876               	movf	__Umul8_16@word_mpld,w
  3916  0B29  07F4               	addwf	__Umul8_16@product,f
  3917  0B2A  1803               	skipnc
  3918  0B2B  0AF5               	incf	__Umul8_16@product+1,f
  3919  0B2C  0877               	movf	__Umul8_16@word_mpld+1,w
  3920  0B2D  07F5               	addwf	__Umul8_16@product+1,f
  3921  0B2E                     l688:
  3922  0B2E  3001               	movlw	1
  3923  0B2F                     u1565:
  3924  0B2F  1003               	clrc
  3925  0B30  0DF6               	rlf	__Umul8_16@word_mpld,f
  3926  0B31  0DF7               	rlf	__Umul8_16@word_mpld+1,f
  3927  0B32  3EFF               	addlw	-1
  3928  0B33  1D03               	skipz
  3929  0B34  2B2F               	goto	u1565
  3930  0B35  1003               	clrc
  3931  0B36  0CF8               	rrf	__Umul8_16@multiplier,f
  3932  0B37                     l1640:
  3933  0B37  0878               	movf	__Umul8_16@multiplier,w
  3934  0B38  1D03               	btfss	3,2
  3935  0B39  2B3B               	goto	u1571
  3936  0B3A  2B3C               	goto	u1570
  3937  0B3B                     u1571:
  3938  0B3B  2B24               	goto	l1636
  3939  0B3C                     u1570:
  3940  0B3C                     l1642:
  3941  0B3C  0875               	movf	__Umul8_16@product+1,w
  3942  0B3D  00F1               	movwf	?__Umul8_16+1
  3943  0B3E  0874               	movf	__Umul8_16@product,w
  3944  0B3F  00F0               	movwf	?__Umul8_16
  3945  0B40                     l690:
  3946  0B40  0008               	return
  3947  0B41                     __end_of__Umul8_16:
  3948                           
  3949                           	psect	text11
  3950  0201                     __ptext11:	
  3951 ;; *************** function ___fladd *****************
  3952 ;; Defined at:
  3953 ;;		line 10 in file "C:\Program Files\Microchip\xc8\v2.31\pic\sources\c90\common\sprcadd.c"
  3954 ;; Parameters:    Size  Location     Type
  3955 ;;  b               4   26[BANK0 ] unsigned int 
  3956 ;;  a               4   30[BANK0 ] unsigned int 
  3957 ;; Auto vars:     Size  Location     Type
  3958 ;;  grs             1   45[BANK0 ] unsigned char 
  3959 ;;  bexp            1   44[BANK0 ] unsigned char 
  3960 ;;  aexp            1   43[BANK0 ] unsigned char 
  3961 ;;  signs           1   42[BANK0 ] unsigned char 
  3962 ;; Return value:  Size  Location     Type
  3963 ;;                  4   26[BANK0 ] unsigned char 
  3964 ;; Registers used:
  3965 ;;		wreg, status,2, status,0, btemp+1
  3966 ;; Tracked objects:
  3967 ;;		On entry : 0/0
  3968 ;;		On exit  : 0/0
  3969 ;;		Unchanged: 0/0
  3970 ;; Data sizes:     COMMON   BANK0   BANK1   BANK3   BANK2
  3971 ;;      Params:         0       8       0       0       0
  3972 ;;      Locals:         0       4       0       0       0
  3973 ;;      Temps:          0       8       0       0       0
  3974 ;;      Totals:         0      20       0       0       0
  3975 ;;Total ram usage:       20 bytes
  3976 ;; Hardware stack levels used:    1
  3977 ;; This function calls:
  3978 ;;		Nothing
  3979 ;; This function is called by:
  3980 ;;		_Temperatura
  3981 ;; This function uses a non-reentrant model
  3982 ;;
  3983                           
  3984                           
  3985                           ;psect for function ___fladd
  3986  0201                     ___fladd:
  3987  0201                     l1786:	
  3988                           ;incstack = 0
  3989                           ; Regs used in ___fladd: [wreg+status,2+status,0+btemp+1]
  3990                           
  3991  0201  1283               	bcf	3,5	;RP0=0, select bank0
  3992  0202  1303               	bcf	3,6	;RP1=0, select bank0
  3993  0203  083D               	movf	___fladd@b+3,w
  3994  0204  3980               	andlw	128
  3995  0205  00C2               	movwf	??___fladd
  3996  0206  0842               	movf	??___fladd,w
  3997  0207  00CA               	movwf	___fladd@signs
  3998  0208                     l1788:
  3999  0208  083D               	movf	___fladd@b+3,w
  4000  0209  00C2               	movwf	??___fladd
  4001  020A  0742               	addwf	??___fladd,w
  4002  020B  00C3               	movwf	??___fladd+1
  4003  020C  0843               	movf	??___fladd+1,w
  4004  020D  00CC               	movwf	___fladd@bexp
  4005  020E                     l1790:
  4006  020E  1FBC               	btfss	___fladd@b+2,7
  4007  020F  2A11               	goto	u1841
  4008  0210  2A12               	goto	u1840
  4009  0211                     u1841:
  4010  0211  2A13               	goto	l1794
  4011  0212                     u1840:
  4012  0212                     l1792:
  4013  0212  144C               	bsf	___fladd@bexp,0
  4014  0213                     l1794:
  4015  0213  084C               	movf	___fladd@bexp,w
  4016  0214  1903               	btfsc	3,2
  4017  0215  2A17               	goto	u1851
  4018  0216  2A18               	goto	u1850
  4019  0217                     u1851:
  4020  0217  2A28               	goto	l1804
  4021  0218                     u1850:
  4022  0218                     l1796:
  4023  0218  0A4C               	incf	___fladd@bexp,w
  4024  0219  1D03               	btfss	3,2
  4025  021A  2A1C               	goto	u1861
  4026  021B  2A1D               	goto	u1860
  4027  021C                     u1861:
  4028  021C  2A25               	goto	l1800
  4029  021D                     u1860:
  4030  021D                     l1798:
  4031  021D  3000               	movlw	0
  4032  021E  00BD               	movwf	___fladd@b+3
  4033  021F  3000               	movlw	0
  4034  0220  00BC               	movwf	___fladd@b+2
  4035  0221  3000               	movlw	0
  4036  0222  00BB               	movwf	___fladd@b+1
  4037  0223  3000               	movlw	0
  4038  0224  00BA               	movwf	___fladd@b
  4039  0225                     l1800:
  4040  0225  17BC               	bsf	___fladd@b+2,7
  4041  0226                     l1802:
  4042  0226  01BD               	clrf	___fladd@b+3
  4043  0227  2A30               	goto	l1806
  4044  0228                     l1804:
  4045  0228  3000               	movlw	0
  4046  0229  00BD               	movwf	___fladd@b+3
  4047  022A  3000               	movlw	0
  4048  022B  00BC               	movwf	___fladd@b+2
  4049  022C  3000               	movlw	0
  4050  022D  00BB               	movwf	___fladd@b+1
  4051  022E  3000               	movlw	0
  4052  022F  00BA               	movwf	___fladd@b
  4053  0230                     l1806:
  4054  0230  0841               	movf	___fladd@a+3,w
  4055  0231  3980               	andlw	128
  4056  0232  00C2               	movwf	??___fladd
  4057  0233  0842               	movf	??___fladd,w
  4058  0234  00CB               	movwf	___fladd@aexp
  4059  0235                     l1808:
  4060  0235  084B               	movf	___fladd@aexp,w
  4061  0236  064A               	xorwf	___fladd@signs,w
  4062  0237  1903               	skipnz
  4063  0238  2A3A               	goto	u1871
  4064  0239  2A3B               	goto	u1870
  4065  023A                     u1871:
  4066  023A  2A3C               	goto	l1812
  4067  023B                     u1870:
  4068  023B                     l1810:
  4069  023B  174A               	bsf	___fladd@signs,6
  4070  023C                     l1812:
  4071  023C  0841               	movf	___fladd@a+3,w
  4072  023D  00C2               	movwf	??___fladd
  4073  023E  0742               	addwf	??___fladd,w
  4074  023F  00C3               	movwf	??___fladd+1
  4075  0240  0843               	movf	??___fladd+1,w
  4076  0241  00CB               	movwf	___fladd@aexp
  4077  0242                     l1814:
  4078  0242  1FC0               	btfss	___fladd@a+2,7
  4079  0243  2A45               	goto	u1881
  4080  0244  2A46               	goto	u1880
  4081  0245                     u1881:
  4082  0245  2A47               	goto	l1818
  4083  0246                     u1880:
  4084  0246                     l1816:
  4085  0246  144B               	bsf	___fladd@aexp,0
  4086  0247                     l1818:
  4087  0247  084B               	movf	___fladd@aexp,w
  4088  0248  1903               	btfsc	3,2
  4089  0249  2A4B               	goto	u1891
  4090  024A  2A4C               	goto	u1890
  4091  024B                     u1891:
  4092  024B  2A5C               	goto	l1828
  4093  024C                     u1890:
  4094  024C                     l1820:
  4095  024C  0A4B               	incf	___fladd@aexp,w
  4096  024D  1D03               	btfss	3,2
  4097  024E  2A50               	goto	u1901
  4098  024F  2A51               	goto	u1900
  4099  0250                     u1901:
  4100  0250  2A59               	goto	l1824
  4101  0251                     u1900:
  4102  0251                     l1822:
  4103  0251  3000               	movlw	0
  4104  0252  00C1               	movwf	___fladd@a+3
  4105  0253  3000               	movlw	0
  4106  0254  00C0               	movwf	___fladd@a+2
  4107  0255  3000               	movlw	0
  4108  0256  00BF               	movwf	___fladd@a+1
  4109  0257  3000               	movlw	0
  4110  0258  00BE               	movwf	___fladd@a
  4111  0259                     l1824:
  4112  0259  17C0               	bsf	___fladd@a+2,7
  4113  025A                     l1826:
  4114  025A  01C1               	clrf	___fladd@a+3
  4115  025B  2A64               	goto	l573
  4116  025C                     l1828:
  4117  025C  3000               	movlw	0
  4118  025D  00C1               	movwf	___fladd@a+3
  4119  025E  3000               	movlw	0
  4120  025F  00C0               	movwf	___fladd@a+2
  4121  0260  3000               	movlw	0
  4122  0261  00BF               	movwf	___fladd@a+1
  4123  0262  3000               	movlw	0
  4124  0263  00BE               	movwf	___fladd@a
  4125  0264                     l573:
  4126  0264  084C               	movf	___fladd@bexp,w
  4127  0265  024B               	subwf	___fladd@aexp,w
  4128  0266  1803               	skipnc
  4129  0267  2A69               	goto	u1911
  4130  0268  2A6A               	goto	u1910
  4131  0269                     u1911:
  4132  0269  2AAE               	goto	l1864
  4133  026A                     u1910:
  4134  026A                     l1830:
  4135  026A  1F4A               	btfss	___fladd@signs,6
  4136  026B  2A6D               	goto	u1921
  4137  026C  2A6E               	goto	u1920
  4138  026D                     u1921:
  4139  026D  2A72               	goto	l1834
  4140  026E                     u1920:
  4141  026E                     l1832:
  4142  026E  3080               	movlw	128
  4143  026F  00C2               	movwf	??___fladd
  4144  0270  0842               	movf	??___fladd,w
  4145  0271  06CA               	xorwf	___fladd@signs,f
  4146  0272                     l1834:
  4147  0272  084C               	movf	___fladd@bexp,w
  4148  0273  00C2               	movwf	??___fladd
  4149  0274  0842               	movf	??___fladd,w
  4150  0275  00CD               	movwf	___fladd@grs
  4151  0276                     l1836:
  4152  0276  084B               	movf	___fladd@aexp,w
  4153  0277  00C2               	movwf	??___fladd
  4154  0278  0842               	movf	??___fladd,w
  4155  0279  00CC               	movwf	___fladd@bexp
  4156  027A                     l1838:
  4157  027A  084D               	movf	___fladd@grs,w
  4158  027B  00C2               	movwf	??___fladd
  4159  027C  0842               	movf	??___fladd,w
  4160  027D  00CB               	movwf	___fladd@aexp
  4161  027E                     l1840:
  4162  027E  083A               	movf	___fladd@b,w
  4163  027F  00C2               	movwf	??___fladd
  4164  0280  0842               	movf	??___fladd,w
  4165  0281  00CD               	movwf	___fladd@grs
  4166  0282                     l1842:
  4167  0282  083E               	movf	___fladd@a,w
  4168  0283  00C2               	movwf	??___fladd
  4169  0284  0842               	movf	??___fladd,w
  4170  0285  00BA               	movwf	___fladd@b
  4171  0286                     l1844:
  4172  0286  084D               	movf	___fladd@grs,w
  4173  0287  00C2               	movwf	??___fladd
  4174  0288  0842               	movf	??___fladd,w
  4175  0289  00BE               	movwf	___fladd@a
  4176  028A                     l1846:
  4177  028A  083B               	movf	___fladd@b+1,w
  4178  028B  00C2               	movwf	??___fladd
  4179  028C  0842               	movf	??___fladd,w
  4180  028D  00CD               	movwf	___fladd@grs
  4181  028E                     l1848:
  4182  028E  083F               	movf	___fladd@a+1,w
  4183  028F  00C2               	movwf	??___fladd
  4184  0290  0842               	movf	??___fladd,w
  4185  0291  00BB               	movwf	___fladd@b+1
  4186  0292                     l1850:
  4187  0292  084D               	movf	___fladd@grs,w
  4188  0293  00C2               	movwf	??___fladd
  4189  0294  0842               	movf	??___fladd,w
  4190  0295  00BF               	movwf	___fladd@a+1
  4191  0296                     l1852:
  4192  0296  083C               	movf	___fladd@b+2,w
  4193  0297  00C2               	movwf	??___fladd
  4194  0298  0842               	movf	??___fladd,w
  4195  0299  00CD               	movwf	___fladd@grs
  4196  029A                     l1854:
  4197  029A  0840               	movf	___fladd@a+2,w
  4198  029B  00C2               	movwf	??___fladd
  4199  029C  0842               	movf	??___fladd,w
  4200  029D  00BC               	movwf	___fladd@b+2
  4201  029E                     l1856:
  4202  029E  084D               	movf	___fladd@grs,w
  4203  029F  00C2               	movwf	??___fladd
  4204  02A0  0842               	movf	??___fladd,w
  4205  02A1  00C0               	movwf	___fladd@a+2
  4206  02A2                     l1858:
  4207  02A2  083D               	movf	___fladd@b+3,w
  4208  02A3  00C2               	movwf	??___fladd
  4209  02A4  0842               	movf	??___fladd,w
  4210  02A5  00CD               	movwf	___fladd@grs
  4211  02A6                     l1860:
  4212  02A6  0841               	movf	___fladd@a+3,w
  4213  02A7  00C2               	movwf	??___fladd
  4214  02A8  0842               	movf	??___fladd,w
  4215  02A9  00BD               	movwf	___fladd@b+3
  4216  02AA                     l1862:
  4217  02AA  084D               	movf	___fladd@grs,w
  4218  02AB  00C2               	movwf	??___fladd
  4219  02AC  0842               	movf	??___fladd,w
  4220  02AD  00C1               	movwf	___fladd@a+3
  4221  02AE                     l1864:
  4222  02AE  01CD               	clrf	___fladd@grs
  4223  02AF                     l1866:
  4224  02AF  084B               	movf	___fladd@aexp,w
  4225  02B0  00C2               	movwf	??___fladd
  4226  02B1  01C3               	clrf	??___fladd+1
  4227  02B2  0843               	movf	??___fladd+1,w
  4228  02B3  00C5               	movwf	??___fladd+3
  4229  02B4  084C               	movf	___fladd@bexp,w
  4230  02B5  0242               	subwf	??___fladd,w
  4231  02B6  00C4               	movwf	??___fladd+2
  4232  02B7  1C03               	skipc
  4233  02B8  03C5               	decf	??___fladd+3,f
  4234  02B9  0845               	movf	??___fladd+3,w
  4235  02BA  3A80               	xorlw	128
  4236  02BB  00FF               	movwf	btemp+1
  4237  02BC  3080               	movlw	128
  4238  02BD  027F               	subwf	btemp+1,w
  4239  02BE  1D03               	skipz
  4240  02BF  2AC2               	goto	u1935
  4241  02C0  301A               	movlw	26
  4242  02C1  0244               	subwf	??___fladd+2,w
  4243  02C2                     u1935:
  4244  02C2  1C03               	skipc
  4245  02C3  2AC5               	goto	u1931
  4246  02C4  2AC6               	goto	u1930
  4247  02C5                     u1931:
  4248  02C5  2B03               	goto	l1882
  4249  02C6                     u1930:
  4250  02C6                     l1868:
  4251  02C6  1283               	bcf	3,5	;RP0=0, select bank0
  4252  02C7  1303               	bcf	3,6	;RP1=0, select bank0
  4253  02C8  083D               	movf	___fladd@b+3,w
  4254  02C9  043C               	iorwf	___fladd@b+2,w
  4255  02CA  043B               	iorwf	___fladd@b+1,w
  4256  02CB  043A               	iorwf	___fladd@b,w
  4257  02CC  1D03               	skipz
  4258  02CD  2ACF               	goto	u1941
  4259  02CE  2AD1               	goto	u1940
  4260  02CF                     u1941:
  4261  02CF  3001               	movlw	1
  4262  02D0  2AD2               	goto	u1950
  4263  02D1                     u1940:
  4264  02D1  3000               	movlw	0
  4265  02D2                     u1950:
  4266  02D2  00C2               	movwf	??___fladd
  4267  02D3  0842               	movf	??___fladd,w
  4268  02D4  00CD               	movwf	___fladd@grs
  4269  02D5  3000               	movlw	0
  4270  02D6  00BD               	movwf	___fladd@b+3
  4271  02D7  3000               	movlw	0
  4272  02D8  00BC               	movwf	___fladd@b+2
  4273  02D9  3000               	movlw	0
  4274  02DA  00BB               	movwf	___fladd@b+1
  4275  02DB  3000               	movlw	0
  4276  02DC  00BA               	movwf	___fladd@b
  4277  02DD  084B               	movf	___fladd@aexp,w
  4278  02DE  00C2               	movwf	??___fladd
  4279  02DF  0842               	movf	??___fladd,w
  4280  02E0  00CC               	movwf	___fladd@bexp
  4281  02E1  2B0B               	goto	l577
  4282  02E2                     l579:
  4283  02E2  1C4D               	btfss	___fladd@grs,0
  4284  02E3  2AE5               	goto	u1961
  4285  02E4  2AE6               	goto	u1960
  4286  02E5                     u1961:
  4287  02E5  2AEF               	goto	l1872
  4288  02E6                     u1960:
  4289  02E6                     l1870:
  4290  02E6  084D               	movf	___fladd@grs,w
  4291  02E7  00C2               	movwf	??___fladd
  4292  02E8  1003               	clrc
  4293  02E9  0C42               	rrf	??___fladd,w
  4294  02EA  3801               	iorlw	1
  4295  02EB  00C3               	movwf	??___fladd+1
  4296  02EC  0843               	movf	??___fladd+1,w
  4297  02ED  00CD               	movwf	___fladd@grs
  4298  02EE  2AF1               	goto	l1874
  4299  02EF                     l1872:
  4300  02EF  1003               	clrc
  4301  02F0  0CCD               	rrf	___fladd@grs,f
  4302  02F1                     l1874:
  4303  02F1  1C3A               	btfss	___fladd@b,0
  4304  02F2  2AF4               	goto	u1971
  4305  02F3  2AF5               	goto	u1970
  4306  02F4                     u1971:
  4307  02F4  2AF6               	goto	l1878
  4308  02F5                     u1970:
  4309  02F5                     l1876:
  4310  02F5  17CD               	bsf	___fladd@grs,7
  4311  02F6                     l1878:
  4312  02F6  3001               	movlw	1
  4313  02F7  00C2               	movwf	??___fladd
  4314  02F8                     u1985:
  4315  02F8  0D3D               	rlf	___fladd@b+3,w
  4316  02F9  0CBD               	rrf	___fladd@b+3,f
  4317  02FA  0CBC               	rrf	___fladd@b+2,f
  4318  02FB  0CBB               	rrf	___fladd@b+1,f
  4319  02FC  0CBA               	rrf	___fladd@b,f
  4320  02FD  0BC2               	decfsz	??___fladd& (0+127),f
  4321  02FE  2AF8               	goto	u1985
  4322  02FF                     l1880:
  4323  02FF  3001               	movlw	1
  4324  0300  00C2               	movwf	??___fladd
  4325  0301  0842               	movf	??___fladd,w
  4326  0302  07CC               	addwf	___fladd@bexp,f
  4327  0303                     l1882:
  4328  0303  1283               	bcf	3,5	;RP0=0, select bank0
  4329  0304  1303               	bcf	3,6	;RP1=0, select bank0
  4330  0305  084B               	movf	___fladd@aexp,w
  4331  0306  024C               	subwf	___fladd@bexp,w
  4332  0307  1C03               	skipc
  4333  0308  2B0A               	goto	u1991
  4334  0309  2B0B               	goto	u1990
  4335  030A                     u1991:
  4336  030A  2AE2               	goto	l579
  4337  030B                     u1990:
  4338  030B                     l577:
  4339  030B  1B4A               	btfsc	___fladd@signs,6
  4340  030C  2B0E               	goto	u2001
  4341  030D  2B0F               	goto	u2000
  4342  030E                     u2001:
  4343  030E  2B5A               	goto	l1908
  4344  030F                     u2000:
  4345  030F                     l1884:
  4346  030F  084C               	movf	___fladd@bexp,w
  4347  0310  1D03               	btfss	3,2
  4348  0311  2B13               	goto	u2011
  4349  0312  2B14               	goto	u2010
  4350  0313                     u2011:
  4351  0313  2B1D               	goto	l1890
  4352  0314                     u2010:
  4353  0314                     l1886:
  4354  0314  3000               	movlw	0
  4355  0315  00BD               	movwf	?___fladd+3
  4356  0316  3000               	movlw	0
  4357  0317  00BC               	movwf	?___fladd+2
  4358  0318  3000               	movlw	0
  4359  0319  00BB               	movwf	?___fladd+1
  4360  031A  3000               	movlw	0
  4361  031B  00BA               	movwf	?___fladd
  4362  031C  2C88               	goto	l586
  4363  031D                     l1890:
  4364  031D  083E               	movf	___fladd@a,w
  4365  031E  07BA               	addwf	___fladd@b,f
  4366  031F  083F               	movf	___fladd@a+1,w
  4367  0320  1103               	clrz
  4368  0321  1803               	skipnc
  4369  0322  3E01               	addlw	1
  4370  0323  1903               	skipnz
  4371  0324  2B26               	goto	u2021
  4372  0325  07BB               	addwf	___fladd@b+1,f
  4373  0326                     u2021:
  4374  0326  0840               	movf	___fladd@a+2,w
  4375  0327  1103               	clrz
  4376  0328  1803               	skipnc
  4377  0329  3E01               	addlw	1
  4378  032A  1903               	skipnz
  4379  032B  2B2D               	goto	u2022
  4380  032C  07BC               	addwf	___fladd@b+2,f
  4381  032D                     u2022:
  4382  032D  0841               	movf	___fladd@a+3,w
  4383  032E  1103               	clrz
  4384  032F  1803               	skipnc
  4385  0330  3E01               	addlw	1
  4386  0331  1903               	skipnz
  4387  0332  2B34               	goto	u2023
  4388  0333  07BD               	addwf	___fladd@b+3,f
  4389  0334                     u2023:
  4390  0334                     l1892:
  4391  0334  1C3D               	btfss	___fladd@b+3,0
  4392  0335  2B37               	goto	u2031
  4393  0336  2B38               	goto	u2030
  4394  0337                     u2031:
  4395  0337  2C0E               	goto	l1942
  4396  0338                     u2030:
  4397  0338                     l1894:
  4398  0338  1C4D               	btfss	___fladd@grs,0
  4399  0339  2B3B               	goto	u2041
  4400  033A  2B3C               	goto	u2040
  4401  033B                     u2041:
  4402  033B  2B45               	goto	l1898
  4403  033C                     u2040:
  4404  033C                     l1896:
  4405  033C  084D               	movf	___fladd@grs,w
  4406  033D  00C2               	movwf	??___fladd
  4407  033E  1003               	clrc
  4408  033F  0C42               	rrf	??___fladd,w
  4409  0340  3801               	iorlw	1
  4410  0341  00C3               	movwf	??___fladd+1
  4411  0342  0843               	movf	??___fladd+1,w
  4412  0343  00CD               	movwf	___fladd@grs
  4413  0344  2B47               	goto	l1900
  4414  0345                     l1898:
  4415  0345  1003               	clrc
  4416  0346  0CCD               	rrf	___fladd@grs,f
  4417  0347                     l1900:
  4418  0347  1C3A               	btfss	___fladd@b,0
  4419  0348  2B4A               	goto	u2051
  4420  0349  2B4B               	goto	u2050
  4421  034A                     u2051:
  4422  034A  2B4C               	goto	l1904
  4423  034B                     u2050:
  4424  034B                     l1902:
  4425  034B  17CD               	bsf	___fladd@grs,7
  4426  034C                     l1904:
  4427  034C  3001               	movlw	1
  4428  034D  00C2               	movwf	??___fladd
  4429  034E                     u2065:
  4430  034E  0D3D               	rlf	___fladd@b+3,w
  4431  034F  0CBD               	rrf	___fladd@b+3,f
  4432  0350  0CBC               	rrf	___fladd@b+2,f
  4433  0351  0CBB               	rrf	___fladd@b+1,f
  4434  0352  0CBA               	rrf	___fladd@b,f
  4435  0353  0BC2               	decfsz	??___fladd& (0+127),f
  4436  0354  2B4E               	goto	u2065
  4437  0355                     l1906:
  4438  0355  3001               	movlw	1
  4439  0356  00C2               	movwf	??___fladd
  4440  0357  0842               	movf	??___fladd,w
  4441  0358  07CC               	addwf	___fladd@bexp,f
  4442  0359  2C0E               	goto	l1942
  4443  035A                     l1908:
  4444  035A  083D               	movf	___fladd@b+3,w
  4445  035B  3A80               	xorlw	128
  4446  035C  00FF               	movwf	btemp+1
  4447  035D  0841               	movf	___fladd@a+3,w
  4448  035E  3A80               	xorlw	128
  4449  035F  027F               	subwf	btemp+1,w
  4450  0360  1D03               	skipz
  4451  0361  2B6C               	goto	u2073
  4452  0362  0840               	movf	___fladd@a+2,w
  4453  0363  023C               	subwf	___fladd@b+2,w
  4454  0364  1D03               	skipz
  4455  0365  2B6C               	goto	u2073
  4456  0366  083F               	movf	___fladd@a+1,w
  4457  0367  023B               	subwf	___fladd@b+1,w
  4458  0368  1D03               	skipz
  4459  0369  2B6C               	goto	u2073
  4460  036A  083E               	movf	___fladd@a,w
  4461  036B  023A               	subwf	___fladd@b,w
  4462  036C                     u2073:
  4463  036C  1803               	skipnc
  4464  036D  2B6F               	goto	u2071
  4465  036E  2B70               	goto	u2070
  4466  036F                     u2071:
  4467  036F  2BC8               	goto	l1918
  4468  0370                     u2070:
  4469  0370                     l1910:
  4470  0370  30FF               	movlw	255
  4471  0371  00C2               	movwf	??___fladd
  4472  0372  30FF               	movlw	255
  4473  0373  00C3               	movwf	??___fladd+1
  4474  0374  30FF               	movlw	255
  4475  0375  00C4               	movwf	??___fladd+2
  4476  0376  30FF               	movlw	255
  4477  0377  00C5               	movwf	??___fladd+3
  4478  0378  083E               	movf	___fladd@a,w
  4479  0379  00C6               	movwf	??___fladd+4
  4480  037A  083F               	movf	___fladd@a+1,w
  4481  037B  00C7               	movwf	??___fladd+5
  4482  037C  0840               	movf	___fladd@a+2,w
  4483  037D  00C8               	movwf	??___fladd+6
  4484  037E  0841               	movf	___fladd@a+3,w
  4485  037F  00C9               	movwf	??___fladd+7
  4486  0380  083A               	movf	___fladd@b,w
  4487  0381  02C6               	subwf	??___fladd+4,f
  4488  0382  083B               	movf	___fladd@b+1,w
  4489  0383  1C03               	skipc
  4490  0384  0F3B               	incfsz	___fladd@b+1,w
  4491  0385  2B87               	goto	u2081
  4492  0386  2B88               	goto	u2082
  4493  0387                     u2081:
  4494  0387  02C7               	subwf	??___fladd+5,f
  4495  0388                     u2082:
  4496  0388  083C               	movf	___fladd@b+2,w
  4497  0389  1C03               	skipc
  4498  038A  0F3C               	incfsz	___fladd@b+2,w
  4499  038B  2B8D               	goto	u2083
  4500  038C  2B8E               	goto	u2084
  4501  038D                     u2083:
  4502  038D  02C8               	subwf	??___fladd+6,f
  4503  038E                     u2084:
  4504  038E  083D               	movf	___fladd@b+3,w
  4505  038F  1C03               	skipc
  4506  0390  0F3D               	incfsz	___fladd@b+3,w
  4507  0391  2B93               	goto	u2085
  4508  0392  2B94               	goto	u2086
  4509  0393                     u2085:
  4510  0393  02C9               	subwf	??___fladd+7,f
  4511  0394                     u2086:
  4512  0394  0846               	movf	??___fladd+4,w
  4513  0395  07C2               	addwf	??___fladd,f
  4514  0396  0847               	movf	??___fladd+5,w
  4515  0397  1803               	skipnc
  4516  0398  0F47               	incfsz	??___fladd+5,w
  4517  0399  2B9B               	goto	u2090
  4518  039A  2B9C               	goto	u2091
  4519  039B                     u2090:
  4520  039B  07C3               	addwf	??___fladd+1,f
  4521  039C                     u2091:
  4522  039C  0848               	movf	??___fladd+6,w
  4523  039D  1803               	skipnc
  4524  039E  0F48               	incfsz	??___fladd+6,w
  4525  039F  2BA1               	goto	u2092
  4526  03A0  2BA2               	goto	u2093
  4527  03A1                     u2092:
  4528  03A1  07C4               	addwf	??___fladd+2,f
  4529  03A2                     u2093:
  4530  03A2  0849               	movf	??___fladd+7,w
  4531  03A3  1803               	skipnc
  4532  03A4  0A49               	incf	??___fladd+7,w
  4533  03A5  07C5               	addwf	??___fladd+3,f
  4534  03A6  0845               	movf	??___fladd+3,w
  4535  03A7  00BD               	movwf	___fladd@b+3
  4536  03A8  0844               	movf	??___fladd+2,w
  4537  03A9  00BC               	movwf	___fladd@b+2
  4538  03AA  0843               	movf	??___fladd+1,w
  4539  03AB  00BB               	movwf	___fladd@b+1
  4540  03AC  0842               	movf	??___fladd,w
  4541  03AD  00BA               	movwf	___fladd@b
  4542  03AE                     l1912:
  4543  03AE  3080               	movlw	128
  4544  03AF  00C2               	movwf	??___fladd
  4545  03B0  0842               	movf	??___fladd,w
  4546  03B1  06CA               	xorwf	___fladd@signs,f
  4547  03B2  09CD               	comf	___fladd@grs,f
  4548  03B3  0ACD               	incf	___fladd@grs,f
  4549  03B4                     l1914:
  4550  03B4  084D               	movf	___fladd@grs,w
  4551  03B5  1D03               	btfss	3,2
  4552  03B6  2BB8               	goto	u2101
  4553  03B7  2BB9               	goto	u2100
  4554  03B8                     u2101:
  4555  03B8  2BD6               	goto	l594
  4556  03B9                     u2100:
  4557  03B9                     l1916:
  4558  03B9  3001               	movlw	1
  4559  03BA  07BA               	addwf	___fladd@b,f
  4560  03BB  3000               	movlw	0
  4561  03BC  1803               	skipnc
  4562  03BD  3001               	movlw	1
  4563  03BE  07BB               	addwf	___fladd@b+1,f
  4564  03BF  3000               	movlw	0
  4565  03C0  1803               	skipnc
  4566  03C1  3001               	movlw	1
  4567  03C2  07BC               	addwf	___fladd@b+2,f
  4568  03C3  3000               	movlw	0
  4569  03C4  1803               	skipnc
  4570  03C5  3001               	movlw	1
  4571  03C6  07BD               	addwf	___fladd@b+3,f
  4572  03C7  2BD6               	goto	l594
  4573  03C8                     l1918:
  4574  03C8  083E               	movf	___fladd@a,w
  4575  03C9  02BA               	subwf	___fladd@b,f
  4576  03CA  083F               	movf	___fladd@a+1,w
  4577  03CB  1C03               	skipc
  4578  03CC  0F3F               	incfsz	___fladd@a+1,w
  4579  03CD  02BB               	subwf	___fladd@b+1,f
  4580  03CE  0840               	movf	___fladd@a+2,w
  4581  03CF  1C03               	skipc
  4582  03D0  0F40               	incfsz	___fladd@a+2,w
  4583  03D1  02BC               	subwf	___fladd@b+2,f
  4584  03D2  0841               	movf	___fladd@a+3,w
  4585  03D3  1C03               	skipc
  4586  03D4  0F41               	incfsz	___fladd@a+3,w
  4587  03D5  02BD               	subwf	___fladd@b+3,f
  4588  03D6                     l594:
  4589  03D6  083D               	movf	___fladd@b+3,w
  4590  03D7  043C               	iorwf	___fladd@b+2,w
  4591  03D8  043B               	iorwf	___fladd@b+1,w
  4592  03D9  043A               	iorwf	___fladd@b,w
  4593  03DA  1D03               	skipz
  4594  03DB  2BDD               	goto	u2111
  4595  03DC  2BDE               	goto	u2110
  4596  03DD                     u2111:
  4597  03DD  2C0A               	goto	l1940
  4598  03DE                     u2110:
  4599  03DE                     l1920:
  4600  03DE  084D               	movf	___fladd@grs,w
  4601  03DF  1D03               	btfss	3,2
  4602  03E0  2BE2               	goto	u2121
  4603  03E1  2BE3               	goto	u2120
  4604  03E2                     u2121:
  4605  03E2  2C0A               	goto	l1940
  4606  03E3                     u2120:
  4607  03E3                     l1922:
  4608  03E3  3000               	movlw	0
  4609  03E4  00BD               	movwf	?___fladd+3
  4610  03E5  3000               	movlw	0
  4611  03E6  00BC               	movwf	?___fladd+2
  4612  03E7  3000               	movlw	0
  4613  03E8  00BB               	movwf	?___fladd+1
  4614  03E9  3000               	movlw	0
  4615  03EA  00BA               	movwf	?___fladd
  4616  03EB  2C88               	goto	l586
  4617  03EC                     l1926:
  4618  03EC  3001               	movlw	1
  4619  03ED  00C2               	movwf	??___fladd
  4620  03EE                     u2135:
  4621  03EE  1003               	clrc
  4622  03EF  0DBA               	rlf	___fladd@b,f
  4623  03F0  0DBB               	rlf	___fladd@b+1,f
  4624  03F1  0DBC               	rlf	___fladd@b+2,f
  4625  03F2  0DBD               	rlf	___fladd@b+3,f
  4626  03F3  0BC2               	decfsz	??___fladd,f
  4627  03F4  2BEE               	goto	u2135
  4628  03F5                     l1928:
  4629  03F5  1FCD               	btfss	___fladd@grs,7
  4630  03F6  2BF8               	goto	u2141
  4631  03F7  2BF9               	goto	u2140
  4632  03F8                     u2141:
  4633  03F8  2BFA               	goto	l598
  4634  03F9                     u2140:
  4635  03F9                     l1930:
  4636  03F9  143A               	bsf	___fladd@b,0
  4637  03FA                     l598:
  4638  03FA  1C4D               	btfss	___fladd@grs,0
  4639  03FB  2BFD               	goto	u2151
  4640  03FC  2BFE               	goto	u2150
  4641  03FD                     u2151:
  4642  03FD  2C01               	goto	l1934
  4643  03FE                     u2150:
  4644  03FE                     l1932:
  4645  03FE  1403               	setc
  4646  03FF  0DCD               	rlf	___fladd@grs,f
  4647  0400  2C03               	goto	l1936
  4648  0401                     l1934:
  4649  0401  1003               	clrc
  4650  0402  0DCD               	rlf	___fladd@grs,f
  4651  0403                     l1936:
  4652  0403  084C               	movf	___fladd@bexp,w
  4653  0404  1903               	btfsc	3,2
  4654  0405  2C07               	goto	u2161
  4655  0406  2C08               	goto	u2160
  4656  0407                     u2161:
  4657  0407  2C0A               	goto	l1940
  4658  0408                     u2160:
  4659  0408                     l1938:
  4660  0408  3001               	movlw	1
  4661  0409  02CC               	subwf	___fladd@bexp,f
  4662  040A                     l1940:
  4663  040A  1FBC               	btfss	___fladd@b+2,7
  4664  040B  2C0D               	goto	u2171
  4665  040C  2C0E               	goto	u2170
  4666  040D                     u2171:
  4667  040D  2BEC               	goto	l1926
  4668  040E                     u2170:
  4669  040E                     l1942:
  4670  040E  01CB               	clrf	___fladd@aexp
  4671  040F                     l1944:
  4672  040F  1FCD               	btfss	___fladd@grs,7
  4673  0410  2C12               	goto	u2181
  4674  0411  2C13               	goto	u2180
  4675  0412                     u2181:
  4676  0412  2C21               	goto	l1952
  4677  0413                     u2180:
  4678  0413                     l1946:
  4679  0413  084D               	movf	___fladd@grs,w
  4680  0414  397F               	andlw	127
  4681  0415  1903               	btfsc	3,2
  4682  0416  2C18               	goto	u2191
  4683  0417  2C19               	goto	u2190
  4684  0418                     u2191:
  4685  0418  2C1C               	goto	l604
  4686  0419                     u2190:
  4687  0419                     l1948:
  4688  0419  01CB               	clrf	___fladd@aexp
  4689  041A  0ACB               	incf	___fladd@aexp,f
  4690  041B  2C21               	goto	l1952
  4691  041C                     l604:
  4692  041C  1C3A               	btfss	___fladd@b,0
  4693  041D  2C1F               	goto	u2201
  4694  041E  2C20               	goto	u2200
  4695  041F                     u2201:
  4696  041F  2C21               	goto	l1952
  4697  0420                     u2200:
  4698  0420  2C19               	goto	l1948
  4699  0421                     l1952:
  4700  0421  084B               	movf	___fladd@aexp,w
  4701  0422  1903               	btfsc	3,2
  4702  0423  2C25               	goto	u2211
  4703  0424  2C26               	goto	u2210
  4704  0425                     u2211:
  4705  0425  2C5A               	goto	l607
  4706  0426                     u2210:
  4707  0426                     l1954:
  4708  0426  3001               	movlw	1
  4709  0427  07BA               	addwf	___fladd@b,f
  4710  0428  3000               	movlw	0
  4711  0429  1803               	skipnc
  4712  042A  3001               	movlw	1
  4713  042B  07BB               	addwf	___fladd@b+1,f
  4714  042C  3000               	movlw	0
  4715  042D  1803               	skipnc
  4716  042E  3001               	movlw	1
  4717  042F  07BC               	addwf	___fladd@b+2,f
  4718  0430  3000               	movlw	0
  4719  0431  1803               	skipnc
  4720  0432  3001               	movlw	1
  4721  0433  07BD               	addwf	___fladd@b+3,f
  4722  0434                     l1956:
  4723  0434  1C3D               	btfss	___fladd@b+3,0
  4724  0435  2C37               	goto	u2221
  4725  0436  2C38               	goto	u2220
  4726  0437                     u2221:
  4727  0437  2C5A               	goto	l607
  4728  0438                     u2220:
  4729  0438                     l1958:
  4730  0438  083A               	movf	___fladd@b,w
  4731  0439  00C2               	movwf	??___fladd
  4732  043A  083B               	movf	___fladd@b+1,w
  4733  043B  00C3               	movwf	??___fladd+1
  4734  043C  083C               	movf	___fladd@b+2,w
  4735  043D  00C4               	movwf	??___fladd+2
  4736  043E  083D               	movf	___fladd@b+3,w
  4737  043F  00C5               	movwf	??___fladd+3
  4738  0440  3001               	movlw	1
  4739  0441  00C6               	movwf	??___fladd+4
  4740  0442                     u2235:
  4741  0442  0D45               	rlf	??___fladd+3,w
  4742  0443  0CC5               	rrf	??___fladd+3,f
  4743  0444  0CC4               	rrf	??___fladd+2,f
  4744  0445  0CC3               	rrf	??___fladd+1,f
  4745  0446  0CC2               	rrf	??___fladd,f
  4746  0447                     u2230:
  4747  0447  0BC6               	decfsz	??___fladd+4,f
  4748  0448  2C42               	goto	u2235
  4749  0449  0845               	movf	??___fladd+3,w
  4750  044A  00BD               	movwf	___fladd@b+3
  4751  044B  0844               	movf	??___fladd+2,w
  4752  044C  00BC               	movwf	___fladd@b+2
  4753  044D  0843               	movf	??___fladd+1,w
  4754  044E  00BB               	movwf	___fladd@b+1
  4755  044F  0842               	movf	??___fladd,w
  4756  0450  00BA               	movwf	___fladd@b
  4757  0451  0A4C               	incf	___fladd@bexp,w
  4758  0452  1903               	btfsc	3,2
  4759  0453  2C55               	goto	u2241
  4760  0454  2C56               	goto	u2240
  4761  0455                     u2241:
  4762  0455  2C5A               	goto	l607
  4763  0456                     u2240:
  4764  0456                     l1960:
  4765  0456  3001               	movlw	1
  4766  0457  00C2               	movwf	??___fladd
  4767  0458  0842               	movf	??___fladd,w
  4768  0459  07CC               	addwf	___fladd@bexp,f
  4769  045A                     l607:
  4770  045A  0A4C               	incf	___fladd@bexp,w
  4771  045B  1903               	btfsc	3,2
  4772  045C  2C5E               	goto	u2251
  4773  045D  2C5F               	goto	u2250
  4774  045E                     u2251:
  4775  045E  2C64               	goto	l1964
  4776  045F                     u2250:
  4777  045F                     l1962:
  4778  045F  084C               	movf	___fladd@bexp,w
  4779  0460  1D03               	btfss	3,2
  4780  0461  2C63               	goto	u2261
  4781  0462  2C64               	goto	u2260
  4782  0463                     u2261:
  4783  0463  2C72               	goto	l1970
  4784  0464                     u2260:
  4785  0464                     l1964:
  4786  0464  3000               	movlw	0
  4787  0465  00BD               	movwf	___fladd@b+3
  4788  0466  3000               	movlw	0
  4789  0467  00BC               	movwf	___fladd@b+2
  4790  0468  3000               	movlw	0
  4791  0469  00BB               	movwf	___fladd@b+1
  4792  046A  3000               	movlw	0
  4793  046B  00BA               	movwf	___fladd@b
  4794  046C                     l1966:
  4795  046C  084C               	movf	___fladd@bexp,w
  4796  046D  1D03               	btfss	3,2
  4797  046E  2C70               	goto	u2271
  4798  046F  2C71               	goto	u2270
  4799  0470                     u2271:
  4800  0470  2C72               	goto	l1970
  4801  0471                     u2270:
  4802  0471                     l1968:
  4803  0471  01CA               	clrf	___fladd@signs
  4804  0472                     l1970:
  4805  0472  1C4C               	btfss	___fladd@bexp,0
  4806  0473  2C75               	goto	u2281
  4807  0474  2C76               	goto	u2280
  4808  0475                     u2281:
  4809  0475  2C78               	goto	l1974
  4810  0476                     u2280:
  4811  0476                     l1972:
  4812  0476  17BC               	bsf	___fladd@b+2,7
  4813  0477  2C7C               	goto	l615
  4814  0478                     l1974:
  4815  0478  307F               	movlw	127
  4816  0479  00C2               	movwf	??___fladd
  4817  047A  0842               	movf	??___fladd,w
  4818  047B  05BC               	andwf	___fladd@b+2,f
  4819  047C                     l615:
  4820  047C  084C               	movf	___fladd@bexp,w
  4821  047D  00C2               	movwf	??___fladd
  4822  047E  1003               	clrc
  4823  047F  0C42               	rrf	??___fladd,w
  4824  0480  00C3               	movwf	??___fladd+1
  4825  0481  0843               	movf	??___fladd+1,w
  4826  0482  00BD               	movwf	___fladd@b+3
  4827  0483                     l1976:
  4828  0483  1FCA               	btfss	___fladd@signs,7
  4829  0484  2C86               	goto	u2291
  4830  0485  2C87               	goto	u2290
  4831  0486                     u2291:
  4832  0486  2C88               	goto	l616
  4833  0487                     u2290:
  4834  0487                     l1978:
  4835  0487  17BD               	bsf	___fladd@b+3,7
  4836  0488                     l616:
  4837  0488                     l586:
  4838  0488  0008               	return
  4839  0489                     __end_of___fladd:
  4840                           
  4841                           	psect	text12
  4842  0A81                     __ptext12:	
  4843 ;; *************** function ___bmul *****************
  4844 ;; Defined at:
  4845 ;;		line 4 in file "C:\Program Files\Microchip\xc8\v2.31\pic\sources\c90\common\Umul8.c"
  4846 ;; Parameters:    Size  Location     Type
  4847 ;;  multiplier      1    wreg     unsigned char 
  4848 ;;  multiplicand    1    0[COMMON] unsigned char 
  4849 ;; Auto vars:     Size  Location     Type
  4850 ;;  multiplier      1    3[COMMON] unsigned char 
  4851 ;;  product         1    2[COMMON] unsigned char 
  4852 ;; Return value:  Size  Location     Type
  4853 ;;                  1    wreg      unsigned char 
  4854 ;; Registers used:
  4855 ;;		wreg, status,2, status,0
  4856 ;; Tracked objects:
  4857 ;;		On entry : 0/0
  4858 ;;		On exit  : 0/0
  4859 ;;		Unchanged: 0/0
  4860 ;; Data sizes:     COMMON   BANK0   BANK1   BANK3   BANK2
  4861 ;;      Params:         1       0       0       0       0
  4862 ;;      Locals:         2       0       0       0       0
  4863 ;;      Temps:          1       0       0       0       0
  4864 ;;      Totals:         4       0       0       0       0
  4865 ;;Total ram usage:        4 bytes
  4866 ;; Hardware stack levels used:    1
  4867 ;; This function calls:
  4868 ;;		Nothing
  4869 ;; This function is called by:
  4870 ;;		_decimal
  4871 ;;		_voltaje
  4872 ;;		_Temperatura
  4873 ;; This function uses a non-reentrant model
  4874 ;;
  4875                           
  4876                           
  4877                           ;psect for function ___bmul
  4878  0A81                     ___bmul:
  4879                           
  4880                           ;incstack = 0
  4881                           ; Regs used in ___bmul: [wreg+status,2+status,0]
  4882                           ;___bmul@multiplier stored from wreg
  4883  0A81  00F3               	movwf	___bmul@multiplier
  4884  0A82                     l1692:
  4885  0A82  01F2               	clrf	___bmul@product
  4886  0A83                     l1694:
  4887  0A83  1C73               	btfss	___bmul@multiplier,0
  4888  0A84  2A86               	goto	u1621
  4889  0A85  2A87               	goto	u1620
  4890  0A86                     u1621:
  4891  0A86  2A8B               	goto	l1698
  4892  0A87                     u1620:
  4893  0A87                     l1696:
  4894  0A87  0870               	movf	___bmul@multiplicand,w
  4895  0A88  00F1               	movwf	??___bmul
  4896  0A89  0871               	movf	??___bmul,w
  4897  0A8A  07F2               	addwf	___bmul@product,f
  4898  0A8B                     l1698:
  4899  0A8B  1003               	clrc
  4900  0A8C  0DF0               	rlf	___bmul@multiplicand,f
  4901  0A8D                     l1700:
  4902  0A8D  1003               	clrc
  4903  0A8E  0CF3               	rrf	___bmul@multiplier,f
  4904  0A8F  0873               	movf	___bmul@multiplier,w
  4905  0A90  1D03               	btfss	3,2
  4906  0A91  2A93               	goto	u1631
  4907  0A92  2A94               	goto	u1630
  4908  0A93                     u1631:
  4909  0A93  2A83               	goto	l1694
  4910  0A94                     u1630:
  4911  0A94                     l1702:
  4912  0A94  0872               	movf	___bmul@product,w
  4913  0A95                     l306:
  4914  0A95  0008               	return
  4915  0A96                     __end_of___bmul:
  4916                           
  4917                           	psect	text13
  4918  0D04                     __ptext13:	
  4919 ;; *************** function ___awdiv *****************
  4920 ;; Defined at:
  4921 ;;		line 5 in file "C:\Program Files\Microchip\xc8\v2.31\pic\sources\c90\common\awdiv.c"
  4922 ;; Parameters:    Size  Location     Type
  4923 ;;  divisor         2    0[COMMON] int 
  4924 ;;  dividend        2    2[COMMON] int 
  4925 ;; Auto vars:     Size  Location     Type
  4926 ;;  quotient        2    7[COMMON] int 
  4927 ;;  sign            1    6[COMMON] unsigned char 
  4928 ;;  counter         1    5[COMMON] unsigned char 
  4929 ;; Return value:  Size  Location     Type
  4930 ;;                  2    0[COMMON] int 
  4931 ;; Registers used:
  4932 ;;		wreg, status,2, status,0
  4933 ;; Tracked objects:
  4934 ;;		On entry : 0/0
  4935 ;;		On exit  : 0/0
  4936 ;;		Unchanged: 0/0
  4937 ;; Data sizes:     COMMON   BANK0   BANK1   BANK3   BANK2
  4938 ;;      Params:         4       0       0       0       0
  4939 ;;      Locals:         4       0       0       0       0
  4940 ;;      Temps:          1       0       0       0       0
  4941 ;;      Totals:         9       0       0       0       0
  4942 ;;Total ram usage:        9 bytes
  4943 ;; Hardware stack levels used:    1
  4944 ;; This function calls:
  4945 ;;		Nothing
  4946 ;; This function is called by:
  4947 ;;		_decimal
  4948 ;;		_voltaje
  4949 ;;		_Temperatura
  4950 ;; This function uses a non-reentrant model
  4951 ;;
  4952                           
  4953                           
  4954                           ;psect for function ___awdiv
  4955  0D04                     ___awdiv:
  4956  0D04                     l1706:	
  4957                           ;incstack = 0
  4958                           ; Regs used in ___awdiv: [wreg+status,2+status,0]
  4959                           
  4960  0D04  01F6               	clrf	___awdiv@sign
  4961  0D05                     l1708:
  4962  0D05  1FF1               	btfss	___awdiv@divisor+1,7
  4963  0D06  2D08               	goto	u1641
  4964  0D07  2D09               	goto	u1640
  4965  0D08                     u1641:
  4966  0D08  2D10               	goto	l1714
  4967  0D09                     u1640:
  4968  0D09                     l1710:
  4969  0D09  09F0               	comf	___awdiv@divisor,f
  4970  0D0A  09F1               	comf	___awdiv@divisor+1,f
  4971  0D0B  0AF0               	incf	___awdiv@divisor,f
  4972  0D0C  1903               	skipnz
  4973  0D0D  0AF1               	incf	___awdiv@divisor+1,f
  4974  0D0E                     l1712:
  4975  0D0E  01F6               	clrf	___awdiv@sign
  4976  0D0F  0AF6               	incf	___awdiv@sign,f
  4977  0D10                     l1714:
  4978  0D10  1FF3               	btfss	___awdiv@dividend+1,7
  4979  0D11  2D13               	goto	u1651
  4980  0D12  2D14               	goto	u1650
  4981  0D13                     u1651:
  4982  0D13  2D1D               	goto	l1720
  4983  0D14                     u1650:
  4984  0D14                     l1716:
  4985  0D14  09F2               	comf	___awdiv@dividend,f
  4986  0D15  09F3               	comf	___awdiv@dividend+1,f
  4987  0D16  0AF2               	incf	___awdiv@dividend,f
  4988  0D17  1903               	skipnz
  4989  0D18  0AF3               	incf	___awdiv@dividend+1,f
  4990  0D19                     l1718:
  4991  0D19  3001               	movlw	1
  4992  0D1A  00F4               	movwf	??___awdiv
  4993  0D1B  0874               	movf	??___awdiv,w
  4994  0D1C  06F6               	xorwf	___awdiv@sign,f
  4995  0D1D                     l1720:
  4996  0D1D  01F7               	clrf	___awdiv@quotient
  4997  0D1E  01F8               	clrf	___awdiv@quotient+1
  4998  0D1F                     l1722:
  4999  0D1F  0870               	movf	___awdiv@divisor,w
  5000  0D20  0471               	iorwf	___awdiv@divisor+1,w
  5001  0D21  1903               	btfsc	3,2
  5002  0D22  2D24               	goto	u1661
  5003  0D23  2D25               	goto	u1660
  5004  0D24                     u1661:
  5005  0D24  2D5C               	goto	l1742
  5006  0D25                     u1660:
  5007  0D25                     l1724:
  5008  0D25  01F5               	clrf	___awdiv@counter
  5009  0D26  0AF5               	incf	___awdiv@counter,f
  5010  0D27  2D33               	goto	l1730
  5011  0D28                     l1726:
  5012  0D28  3001               	movlw	1
  5013  0D29                     u1675:
  5014  0D29  1003               	clrc
  5015  0D2A  0DF0               	rlf	___awdiv@divisor,f
  5016  0D2B  0DF1               	rlf	___awdiv@divisor+1,f
  5017  0D2C  3EFF               	addlw	-1
  5018  0D2D  1D03               	skipz
  5019  0D2E  2D29               	goto	u1675
  5020  0D2F                     l1728:
  5021  0D2F  3001               	movlw	1
  5022  0D30  00F4               	movwf	??___awdiv
  5023  0D31  0874               	movf	??___awdiv,w
  5024  0D32  07F5               	addwf	___awdiv@counter,f
  5025  0D33                     l1730:
  5026  0D33  1FF1               	btfss	___awdiv@divisor+1,7
  5027  0D34  2D36               	goto	u1681
  5028  0D35  2D37               	goto	u1680
  5029  0D36                     u1681:
  5030  0D36  2D28               	goto	l1726
  5031  0D37                     u1680:
  5032  0D37                     l1732:
  5033  0D37  3001               	movlw	1
  5034  0D38                     u1695:
  5035  0D38  1003               	clrc
  5036  0D39  0DF7               	rlf	___awdiv@quotient,f
  5037  0D3A  0DF8               	rlf	___awdiv@quotient+1,f
  5038  0D3B  3EFF               	addlw	-1
  5039  0D3C  1D03               	skipz
  5040  0D3D  2D38               	goto	u1695
  5041  0D3E  0871               	movf	___awdiv@divisor+1,w
  5042  0D3F  0273               	subwf	___awdiv@dividend+1,w
  5043  0D40  1D03               	skipz
  5044  0D41  2D44               	goto	u1705
  5045  0D42  0870               	movf	___awdiv@divisor,w
  5046  0D43  0272               	subwf	___awdiv@dividend,w
  5047  0D44                     u1705:
  5048  0D44  1C03               	skipc
  5049  0D45  2D47               	goto	u1701
  5050  0D46  2D48               	goto	u1700
  5051  0D47                     u1701:
  5052  0D47  2D4F               	goto	l1738
  5053  0D48                     u1700:
  5054  0D48                     l1734:
  5055  0D48  0870               	movf	___awdiv@divisor,w
  5056  0D49  02F2               	subwf	___awdiv@dividend,f
  5057  0D4A  0871               	movf	___awdiv@divisor+1,w
  5058  0D4B  1C03               	skipc
  5059  0D4C  03F3               	decf	___awdiv@dividend+1,f
  5060  0D4D  02F3               	subwf	___awdiv@dividend+1,f
  5061  0D4E                     l1736:
  5062  0D4E  1477               	bsf	___awdiv@quotient,0
  5063  0D4F                     l1738:
  5064  0D4F  3001               	movlw	1
  5065  0D50                     u1715:
  5066  0D50  1003               	clrc
  5067  0D51  0CF1               	rrf	___awdiv@divisor+1,f
  5068  0D52  0CF0               	rrf	___awdiv@divisor,f
  5069  0D53  3EFF               	addlw	-1
  5070  0D54  1D03               	skipz
  5071  0D55  2D50               	goto	u1715
  5072  0D56                     l1740:
  5073  0D56  3001               	movlw	1
  5074  0D57  02F5               	subwf	___awdiv@counter,f
  5075  0D58  1D03               	btfss	3,2
  5076  0D59  2D5B               	goto	u1721
  5077  0D5A  2D5C               	goto	u1720
  5078  0D5B                     u1721:
  5079  0D5B  2D37               	goto	l1732
  5080  0D5C                     u1720:
  5081  0D5C                     l1742:
  5082  0D5C  0876               	movf	___awdiv@sign,w
  5083  0D5D  1903               	btfsc	3,2
  5084  0D5E  2D60               	goto	u1731
  5085  0D5F  2D61               	goto	u1730
  5086  0D60                     u1731:
  5087  0D60  2D66               	goto	l1746
  5088  0D61                     u1730:
  5089  0D61                     l1744:
  5090  0D61  09F7               	comf	___awdiv@quotient,f
  5091  0D62  09F8               	comf	___awdiv@quotient+1,f
  5092  0D63  0AF7               	incf	___awdiv@quotient,f
  5093  0D64  1903               	skipnz
  5094  0D65  0AF8               	incf	___awdiv@quotient+1,f
  5095  0D66                     l1746:
  5096  0D66  0878               	movf	___awdiv@quotient+1,w
  5097  0D67  00F1               	movwf	?___awdiv+1
  5098  0D68  0877               	movf	___awdiv@quotient,w
  5099  0D69  00F0               	movwf	?___awdiv
  5100  0D6A                     l433:
  5101  0D6A  0008               	return
  5102  0D6B                     __end_of___awdiv:
  5103                           
  5104                           	psect	text14
  5105  0AF5                     __ptext14:	
  5106 ;; *************** function _Lcd_Write_String *****************
  5107 ;; Defined at:
  5108 ;;		line 95 in file "LCD_4.c"
  5109 ;; Parameters:    Size  Location     Type
  5110 ;;  a               1    wreg     PTR unsigned char 
  5111 ;;		 -> STR_4(3), STR_3(3), STR_2(2), STR_1(16), 
  5112 ;; Auto vars:     Size  Location     Type
  5113 ;;  a               1    7[COMMON] PTR unsigned char 
  5114 ;;		 -> STR_4(3), STR_3(3), STR_2(2), STR_1(16), 
  5115 ;;  i               2    5[COMMON] int 
  5116 ;; Return value:  Size  Location     Type
  5117 ;;                  1    wreg      void 
  5118 ;; Registers used:
  5119 ;;		wreg, fsr0l, fsr0h, status,2, status,0, pclath, cstack
  5120 ;; Tracked objects:
  5121 ;;		On entry : 0/0
  5122 ;;		On exit  : 0/0
  5123 ;;		Unchanged: 0/0
  5124 ;; Data sizes:     COMMON   BANK0   BANK1   BANK3   BANK2
  5125 ;;      Params:         0       0       0       0       0
  5126 ;;      Locals:         3       0       0       0       0
  5127 ;;      Temps:          0       0       0       0       0
  5128 ;;      Totals:         3       0       0       0       0
  5129 ;;Total ram usage:        3 bytes
  5130 ;; Hardware stack levels used:    1
  5131 ;; Hardware stack levels required when called:    2
  5132 ;; This function calls:
  5133 ;;		_Lcd_Write_Char
  5134 ;; This function is called by:
  5135 ;;		_main
  5136 ;; This function uses a non-reentrant model
  5137 ;;
  5138                           
  5139                           
  5140                           ;psect for function _Lcd_Write_String
  5141  0AF5                     _Lcd_Write_String:
  5142                           
  5143                           ;incstack = 0
  5144                           ; Regs used in _Lcd_Write_String: [wreg-fsr0h+status,2+status,0+pclath+cstack]
  5145                           ;Lcd_Write_String@a stored from wreg
  5146  0AF5  00F7               	movwf	Lcd_Write_String@a
  5147  0AF6                     l2208:
  5148                           
  5149                           ;LCD_4.c: 96:     int i;;LCD_4.c: 97:     for (i = 0; a[i] != '\0'; i++)
  5150  0AF6  01F5               	clrf	Lcd_Write_String@i
  5151  0AF7  01F6               	clrf	Lcd_Write_String@i+1
  5152  0AF8  2B0C               	goto	l2214
  5153  0AF9                     l2210:
  5154                           
  5155                           ;LCD_4.c: 98:         Lcd_Write_Char(a[i]);
  5156  0AF9  0875               	movf	Lcd_Write_String@i,w
  5157  0AFA  0777               	addwf	Lcd_Write_String@a,w
  5158  0AFB  0084               	movwf	4
  5159  0AFC  120A  158A  2000  120A  158A  	fcall	stringdir
  5160  0B01  120A  158A  236F  120A  158A  	fcall	_Lcd_Write_Char
  5161  0B06                     l2212:
  5162  0B06  3001               	movlw	1
  5163  0B07  07F5               	addwf	Lcd_Write_String@i,f
  5164  0B08  1803               	skipnc
  5165  0B09  0AF6               	incf	Lcd_Write_String@i+1,f
  5166  0B0A  3000               	movlw	0
  5167  0B0B  07F6               	addwf	Lcd_Write_String@i+1,f
  5168  0B0C                     l2214:
  5169  0B0C  0875               	movf	Lcd_Write_String@i,w
  5170  0B0D  0777               	addwf	Lcd_Write_String@a,w
  5171  0B0E  0084               	movwf	4
  5172  0B0F  120A  158A  2000  120A  158A  	fcall	stringdir
  5173  0B14  3A00               	xorlw	0
  5174  0B15  1D03               	skipz
  5175  0B16  2B18               	goto	u2851
  5176  0B17  2B19               	goto	u2850
  5177  0B18                     u2851:
  5178  0B18  2AF9               	goto	l2210
  5179  0B19                     u2850:
  5180  0B19                     l133:
  5181  0B19  0008               	return
  5182  0B1A                     __end_of_Lcd_Write_String:
  5183                           
  5184                           	psect	text15
  5185  0B6F                     __ptext15:	
  5186 ;; *************** function _Lcd_Write_Char *****************
  5187 ;; Defined at:
  5188 ;;		line 80 in file "LCD_4.c"
  5189 ;; Parameters:    Size  Location     Type
  5190 ;;  a               1    wreg     unsigned char 
  5191 ;; Auto vars:     Size  Location     Type
  5192 ;;  a               1    4[COMMON] unsigned char 
  5193 ;;  y               1    3[COMMON] unsigned char 
  5194 ;;  temp            1    2[COMMON] unsigned char 
  5195 ;; Return value:  Size  Location     Type
  5196 ;;                  1    wreg      void 
  5197 ;; Registers used:
  5198 ;;		wreg, status,2, status,0, pclath, cstack
  5199 ;; Tracked objects:
  5200 ;;		On entry : 0/0
  5201 ;;		On exit  : 0/0
  5202 ;;		Unchanged: 0/0
  5203 ;; Data sizes:     COMMON   BANK0   BANK1   BANK3   BANK2
  5204 ;;      Params:         0       0       0       0       0
  5205 ;;      Locals:         3       0       0       0       0
  5206 ;;      Temps:          1       0       0       0       0
  5207 ;;      Totals:         4       0       0       0       0
  5208 ;;Total ram usage:        4 bytes
  5209 ;; Hardware stack levels used:    1
  5210 ;; Hardware stack levels required when called:    1
  5211 ;; This function calls:
  5212 ;;		_Lcd_Port
  5213 ;; This function is called by:
  5214 ;;		_main
  5215 ;;		_Lcd_Write_String
  5216 ;; This function uses a non-reentrant model
  5217 ;;
  5218                           
  5219                           
  5220                           ;psect for function _Lcd_Write_Char
  5221  0B6F                     _Lcd_Write_Char:
  5222                           
  5223                           ;incstack = 0
  5224                           ; Regs used in _Lcd_Write_Char: [wreg+status,2+status,0+pclath+cstack]
  5225                           ;Lcd_Write_Char@a stored from wreg
  5226  0B6F  00F4               	movwf	Lcd_Write_Char@a
  5227  0B70                     l1658:
  5228                           
  5229                           ;LCD_4.c: 81:     char temp, y;;LCD_4.c: 82:     temp = a & 0x0F;
  5230  0B70  0874               	movf	Lcd_Write_Char@a,w
  5231  0B71  390F               	andlw	15
  5232  0B72  00F1               	movwf	??_Lcd_Write_Char
  5233  0B73  0871               	movf	??_Lcd_Write_Char,w
  5234  0B74  00F2               	movwf	Lcd_Write_Char@temp
  5235                           
  5236                           ;LCD_4.c: 83:     y = a & 0xF0;
  5237  0B75  0874               	movf	Lcd_Write_Char@a,w
  5238  0B76  39F0               	andlw	240
  5239  0B77  00F1               	movwf	??_Lcd_Write_Char
  5240  0B78  0871               	movf	??_Lcd_Write_Char,w
  5241  0B79  00F3               	movwf	Lcd_Write_Char@y
  5242  0B7A                     l1660:
  5243                           
  5244                           ;LCD_4.c: 84:     PORTDbits.RD2 = 1;
  5245  0B7A  1283               	bcf	3,5	;RP0=0, select bank0
  5246  0B7B  1303               	bcf	3,6	;RP1=0, select bank0
  5247  0B7C  1508               	bsf	8,2	;volatile
  5248  0B7D                     l1662:
  5249                           
  5250                           ;LCD_4.c: 85:     Lcd_Port(y >> 4);
  5251  0B7D  0873               	movf	Lcd_Write_Char@y,w
  5252  0B7E  00F1               	movwf	??_Lcd_Write_Char
  5253  0B7F  3004               	movlw	4
  5254  0B80                     u1595:
  5255  0B80  1003               	clrc
  5256  0B81  0CF1               	rrf	??_Lcd_Write_Char,f
  5257  0B82  3EFF               	addlw	-1
  5258  0B83  1D03               	skipz
  5259  0B84  2B80               	goto	u1595
  5260  0B85  0871               	movf	??_Lcd_Write_Char,w
  5261  0B86  120A  158A  22B0  120A  158A  	fcall	_Lcd_Port
  5262  0B8B                     l1664:
  5263                           
  5264                           ;LCD_4.c: 86:     RD3 = 1;
  5265  0B8B  1283               	bcf	3,5	;RP0=0, select bank0
  5266  0B8C  1303               	bcf	3,6	;RP1=0, select bank0
  5267  0B8D  1588               	bsf	8,3	;volatile
  5268  0B8E                     l1666:
  5269                           
  5270                           ;LCD_4.c: 87:     _delay((unsigned long)((40)*(4000000/4000000.0)));
  5271  0B8E  300D               	movlw	13
  5272  0B8F  00F1               	movwf	??_Lcd_Write_Char
  5273  0B90                     u2957:
  5274  0B90  0BF1               	decfsz	??_Lcd_Write_Char,f
  5275  0B91  2B90               	goto	u2957
  5276  0B92                     l1668:
  5277                           
  5278                           ;LCD_4.c: 88:     RD3 = 0;
  5279  0B92  1283               	bcf	3,5	;RP0=0, select bank0
  5280  0B93  1303               	bcf	3,6	;RP1=0, select bank0
  5281  0B94  1188               	bcf	8,3	;volatile
  5282  0B95                     l1670:
  5283                           
  5284                           ;LCD_4.c: 89:     Lcd_Port(temp);
  5285  0B95  0872               	movf	Lcd_Write_Char@temp,w
  5286  0B96  120A  158A  22B0  120A  158A  	fcall	_Lcd_Port
  5287  0B9B                     l1672:
  5288                           
  5289                           ;LCD_4.c: 90:     RD3 = 1;
  5290  0B9B  1283               	bcf	3,5	;RP0=0, select bank0
  5291  0B9C  1303               	bcf	3,6	;RP1=0, select bank0
  5292  0B9D  1588               	bsf	8,3	;volatile
  5293  0B9E                     l1674:
  5294                           
  5295                           ;LCD_4.c: 91:     _delay((unsigned long)((40)*(4000000/4000000.0)));
  5296  0B9E  300D               	movlw	13
  5297  0B9F  00F1               	movwf	??_Lcd_Write_Char
  5298  0BA0                     u2967:
  5299  0BA0  0BF1               	decfsz	??_Lcd_Write_Char,f
  5300  0BA1  2BA0               	goto	u2967
  5301  0BA2                     l1676:
  5302                           
  5303                           ;LCD_4.c: 92:     RD3 = 0;
  5304  0BA2  1283               	bcf	3,5	;RP0=0, select bank0
  5305  0BA3  1303               	bcf	3,6	;RP1=0, select bank0
  5306  0BA4  1188               	bcf	8,3	;volatile
  5307  0BA5                     l127:
  5308  0BA5  0008               	return
  5309  0BA6                     __end_of_Lcd_Write_Char:
  5310                           
  5311                           	psect	text16
  5312  0003                     __ptext16:	
  5313 ;; *************** function _Lcd_Set_Cursor *****************
  5314 ;; Defined at:
  5315 ;;		line 45 in file "LCD_4.c"
  5316 ;; Parameters:    Size  Location     Type
  5317 ;;  a               1    wreg     unsigned char 
  5318 ;;  b               1    4[COMMON] unsigned char 
  5319 ;; Auto vars:     Size  Location     Type
  5320 ;;  a               1    7[COMMON] unsigned char 
  5321 ;;  temp            1   10[COMMON] unsigned char 
  5322 ;;  y               1    9[COMMON] unsigned char 
  5323 ;;  z               1    8[COMMON] unsigned char 
  5324 ;; Return value:  Size  Location     Type
  5325 ;;                  1    wreg      void 
  5326 ;; Registers used:
  5327 ;;		wreg, status,2, status,0, pclath, cstack
  5328 ;; Tracked objects:
  5329 ;;		On entry : 0/0
  5330 ;;		On exit  : 0/0
  5331 ;;		Unchanged: 0/0
  5332 ;; Data sizes:     COMMON   BANK0   BANK1   BANK3   BANK2
  5333 ;;      Params:         1       0       0       0       0
  5334 ;;      Locals:         4       0       0       0       0
  5335 ;;      Temps:          2       0       0       0       0
  5336 ;;      Totals:         7       0       0       0       0
  5337 ;;Total ram usage:        7 bytes
  5338 ;; Hardware stack levels used:    1
  5339 ;; Hardware stack levels required when called:    2
  5340 ;; This function calls:
  5341 ;;		_Lcd_Cmd
  5342 ;; This function is called by:
  5343 ;;		_main
  5344 ;; This function uses a non-reentrant model
  5345 ;;
  5346                           
  5347                           
  5348                           ;psect for function _Lcd_Set_Cursor
  5349  0003                     _Lcd_Set_Cursor:
  5350                           
  5351                           ;incstack = 0
  5352                           ; Regs used in _Lcd_Set_Cursor: [wreg+status,2+status,0+pclath+cstack]
  5353                           ;Lcd_Set_Cursor@a stored from wreg
  5354  0003  00F7               	movwf	Lcd_Set_Cursor@a
  5355  0004                     l2188:
  5356                           
  5357                           ;LCD_4.c: 46:     char temp, z, y;;LCD_4.c: 47:     if (a == 1) {
  5358  0004  0377               	decf	Lcd_Set_Cursor@a,w
  5359  0005  1D03               	btfss	3,2
  5360  0006  2808               	goto	u2811
  5361  0007  2809               	goto	u2810
  5362  0008                     u2811:
  5363  0008  282C               	goto	l2198
  5364  0009                     u2810:
  5365  0009                     l2190:
  5366                           
  5367                           ;LCD_4.c: 48:         temp = 0x80 + b - 1;
  5368  0009  0874               	movf	Lcd_Set_Cursor@b,w
  5369  000A  3E7F               	addlw	127
  5370  000B  00F5               	movwf	??_Lcd_Set_Cursor
  5371  000C  0875               	movf	??_Lcd_Set_Cursor,w
  5372  000D  00FA               	movwf	Lcd_Set_Cursor@temp
  5373                           
  5374                           ;LCD_4.c: 49:         z = temp >> 4;
  5375  000E  087A               	movf	Lcd_Set_Cursor@temp,w
  5376  000F  00F5               	movwf	??_Lcd_Set_Cursor
  5377  0010  3004               	movlw	4
  5378  0011                     u2825:
  5379  0011  1003               	clrc
  5380  0012  0CF5               	rrf	??_Lcd_Set_Cursor,f
  5381  0013  3EFF               	addlw	-1
  5382  0014  1D03               	skipz
  5383  0015  2811               	goto	u2825
  5384  0016  0875               	movf	??_Lcd_Set_Cursor,w
  5385  0017  00F6               	movwf	??_Lcd_Set_Cursor+1
  5386  0018  0876               	movf	??_Lcd_Set_Cursor+1,w
  5387  0019  00F8               	movwf	Lcd_Set_Cursor@z
  5388  001A                     l2192:
  5389                           
  5390                           ;LCD_4.c: 50:         y = temp & 0x0F;
  5391  001A  087A               	movf	Lcd_Set_Cursor@temp,w
  5392  001B  390F               	andlw	15
  5393  001C  00F5               	movwf	??_Lcd_Set_Cursor
  5394  001D  0875               	movf	??_Lcd_Set_Cursor,w
  5395  001E  00F9               	movwf	Lcd_Set_Cursor@y
  5396  001F                     l2194:
  5397                           
  5398                           ;LCD_4.c: 51:         Lcd_Cmd(z);
  5399  001F  0878               	movf	Lcd_Set_Cursor@z,w
  5400  0020  120A  158A  2296  120A  118A  	fcall	_Lcd_Cmd
  5401  0025                     l2196:
  5402                           
  5403                           ;LCD_4.c: 52:         Lcd_Cmd(y);
  5404  0025  0879               	movf	Lcd_Set_Cursor@y,w
  5405  0026  120A  158A  2296  120A  118A  	fcall	_Lcd_Cmd
  5406                           
  5407                           ;LCD_4.c: 53:     } else if (a == 2) {
  5408  002B  2854               	goto	l121
  5409  002C                     l2198:
  5410  002C  3002               	movlw	2
  5411  002D  0677               	xorwf	Lcd_Set_Cursor@a,w
  5412  002E  1D03               	btfss	3,2
  5413  002F  2831               	goto	u2831
  5414  0030  2832               	goto	u2830
  5415  0031                     u2831:
  5416  0031  2854               	goto	l121
  5417  0032                     u2830:
  5418  0032                     l2200:
  5419                           
  5420                           ;LCD_4.c: 54:         temp = 0xC0 + b - 1;
  5421  0032  0874               	movf	Lcd_Set_Cursor@b,w
  5422  0033  3EBF               	addlw	191
  5423  0034  00F5               	movwf	??_Lcd_Set_Cursor
  5424  0035  0875               	movf	??_Lcd_Set_Cursor,w
  5425  0036  00FA               	movwf	Lcd_Set_Cursor@temp
  5426                           
  5427                           ;LCD_4.c: 55:         z = temp >> 4;
  5428  0037  087A               	movf	Lcd_Set_Cursor@temp,w
  5429  0038  00F5               	movwf	??_Lcd_Set_Cursor
  5430  0039  3004               	movlw	4
  5431  003A                     u2845:
  5432  003A  1003               	clrc
  5433  003B  0CF5               	rrf	??_Lcd_Set_Cursor,f
  5434  003C  3EFF               	addlw	-1
  5435  003D  1D03               	skipz
  5436  003E  283A               	goto	u2845
  5437  003F  0875               	movf	??_Lcd_Set_Cursor,w
  5438  0040  00F6               	movwf	??_Lcd_Set_Cursor+1
  5439  0041  0876               	movf	??_Lcd_Set_Cursor+1,w
  5440  0042  00F8               	movwf	Lcd_Set_Cursor@z
  5441  0043                     l2202:
  5442                           
  5443                           ;LCD_4.c: 56:         y = temp & 0x0F;
  5444  0043  087A               	movf	Lcd_Set_Cursor@temp,w
  5445  0044  390F               	andlw	15
  5446  0045  00F5               	movwf	??_Lcd_Set_Cursor
  5447  0046  0875               	movf	??_Lcd_Set_Cursor,w
  5448  0047  00F9               	movwf	Lcd_Set_Cursor@y
  5449  0048                     l2204:
  5450                           
  5451                           ;LCD_4.c: 57:         Lcd_Cmd(z);
  5452  0048  0878               	movf	Lcd_Set_Cursor@z,w
  5453  0049  120A  158A  2296  120A  118A  	fcall	_Lcd_Cmd
  5454  004E                     l2206:
  5455                           
  5456                           ;LCD_4.c: 58:         Lcd_Cmd(y);
  5457  004E  0879               	movf	Lcd_Set_Cursor@y,w
  5458  004F  120A  158A  2296  120A  118A  	fcall	_Lcd_Cmd
  5459  0054                     l121:
  5460  0054  0008               	return
  5461  0055                     __end_of_Lcd_Set_Cursor:
  5462                           
  5463                           	psect	text17
  5464  0BDE                     __ptext17:	
  5465 ;; *************** function _Lcd_Init *****************
  5466 ;; Defined at:
  5467 ;;		line 62 in file "LCD_4.c"
  5468 ;; Parameters:    Size  Location     Type
  5469 ;;		None
  5470 ;; Auto vars:     Size  Location     Type
  5471 ;;		None
  5472 ;; Return value:  Size  Location     Type
  5473 ;;                  1    wreg      void 
  5474 ;; Registers used:
  5475 ;;		wreg, status,2, status,0, pclath, cstack
  5476 ;; Tracked objects:
  5477 ;;		On entry : 0/0
  5478 ;;		On exit  : 0/0
  5479 ;;		Unchanged: 0/0
  5480 ;; Data sizes:     COMMON   BANK0   BANK1   BANK3   BANK2
  5481 ;;      Params:         0       0       0       0       0
  5482 ;;      Locals:         0       0       0       0       0
  5483 ;;      Temps:          2       0       0       0       0
  5484 ;;      Totals:         2       0       0       0       0
  5485 ;;Total ram usage:        2 bytes
  5486 ;; Hardware stack levels used:    1
  5487 ;; Hardware stack levels required when called:    2
  5488 ;; This function calls:
  5489 ;;		_Lcd_Cmd
  5490 ;;		_Lcd_Port
  5491 ;; This function is called by:
  5492 ;;		_main
  5493 ;; This function uses a non-reentrant model
  5494 ;;
  5495                           
  5496                           
  5497                           ;psect for function _Lcd_Init
  5498  0BDE                     _Lcd_Init:
  5499  0BDE                     l2176:	
  5500                           ;incstack = 0
  5501                           ; Regs used in _Lcd_Init: [wreg+status,2+status,0+pclath+cstack]
  5502                           
  5503                           
  5504                           ;LCD_4.c: 63:     Lcd_Port(0x00);
  5505  0BDE  3000               	movlw	0
  5506  0BDF  120A  158A  22B0  120A  158A  	fcall	_Lcd_Port
  5507  0BE4                     l2178:
  5508                           
  5509                           ;LCD_4.c: 64:     _delay((unsigned long)((20)*(4000000/4000.0)));
  5510  0BE4  301A               	movlw	26
  5511  0BE5  00F5               	movwf	??_Lcd_Init+1
  5512  0BE6  30F8               	movlw	248
  5513  0BE7  00F4               	movwf	??_Lcd_Init
  5514  0BE8                     u2977:
  5515  0BE8  0BF4               	decfsz	??_Lcd_Init,f
  5516  0BE9  2BE8               	goto	u2977
  5517  0BEA  0BF5               	decfsz	??_Lcd_Init+1,f
  5518  0BEB  2BE8               	goto	u2977
  5519  0BEC  0000               	nop
  5520  0BED                     l2180:
  5521                           
  5522                           ;LCD_4.c: 65:     Lcd_Cmd(0x03);
  5523  0BED  3003               	movlw	3
  5524  0BEE  120A  158A  2296  120A  158A  	fcall	_Lcd_Cmd
  5525                           
  5526                           ;LCD_4.c: 66:     _delay((unsigned long)((5)*(4000000/4000.0)));
  5527  0BF3  3007               	movlw	7
  5528  0BF4  00F5               	movwf	??_Lcd_Init+1
  5529  0BF5  307D               	movlw	125
  5530  0BF6  00F4               	movwf	??_Lcd_Init
  5531  0BF7                     u2987:
  5532  0BF7  0BF4               	decfsz	??_Lcd_Init,f
  5533  0BF8  2BF7               	goto	u2987
  5534  0BF9  0BF5               	decfsz	??_Lcd_Init+1,f
  5535  0BFA  2BF7               	goto	u2987
  5536  0BFB                     l2182:
  5537                           
  5538                           ;LCD_4.c: 67:     Lcd_Cmd(0x03);
  5539  0BFB  3003               	movlw	3
  5540  0BFC  120A  158A  2296  120A  158A  	fcall	_Lcd_Cmd
  5541  0C01                     l2184:
  5542                           
  5543                           ;LCD_4.c: 68:     _delay((unsigned long)((11)*(4000000/4000.0)));
  5544  0C01  300F               	movlw	15
  5545  0C02  00F5               	movwf	??_Lcd_Init+1
  5546  0C03  3047               	movlw	71
  5547  0C04  00F4               	movwf	??_Lcd_Init
  5548  0C05                     u2997:
  5549  0C05  0BF4               	decfsz	??_Lcd_Init,f
  5550  0C06  2C05               	goto	u2997
  5551  0C07  0BF5               	decfsz	??_Lcd_Init+1,f
  5552  0C08  2C05               	goto	u2997
  5553  0C09  2C0A               	nop2
  5554                           
  5555                           ;LCD_4.c: 69:     Lcd_Cmd(0x03);
  5556  0C0A  3003               	movlw	3
  5557  0C0B  120A  158A  2296  120A  158A  	fcall	_Lcd_Cmd
  5558                           
  5559                           ;LCD_4.c: 71:     Lcd_Cmd(0x02);
  5560  0C10  3002               	movlw	2
  5561  0C11  120A  158A  2296  120A  158A  	fcall	_Lcd_Cmd
  5562                           
  5563                           ;LCD_4.c: 72:     Lcd_Cmd(0x02);
  5564  0C16  3002               	movlw	2
  5565  0C17  120A  158A  2296  120A  158A  	fcall	_Lcd_Cmd
  5566                           
  5567                           ;LCD_4.c: 73:     Lcd_Cmd(0x08);
  5568  0C1C  3008               	movlw	8
  5569  0C1D  120A  158A  2296  120A  158A  	fcall	_Lcd_Cmd
  5570                           
  5571                           ;LCD_4.c: 74:     Lcd_Cmd(0x00);
  5572  0C22  3000               	movlw	0
  5573  0C23  120A  158A  2296  120A  158A  	fcall	_Lcd_Cmd
  5574                           
  5575                           ;LCD_4.c: 75:     Lcd_Cmd(0x0C);
  5576  0C28  300C               	movlw	12
  5577  0C29  120A  158A  2296  120A  158A  	fcall	_Lcd_Cmd
  5578                           
  5579                           ;LCD_4.c: 76:     Lcd_Cmd(0x00);
  5580  0C2E  3000               	movlw	0
  5581  0C2F  120A  158A  2296  120A  158A  	fcall	_Lcd_Cmd
  5582                           
  5583                           ;LCD_4.c: 77:     Lcd_Cmd(0x06);
  5584  0C34  3006               	movlw	6
  5585  0C35  120A  158A  2296  120A  158A  	fcall	_Lcd_Cmd
  5586  0C3A                     l124:
  5587  0C3A  0008               	return
  5588  0C3B                     __end_of_Lcd_Init:
  5589                           
  5590                           	psect	text18
  5591  0A74                     __ptext18:	
  5592 ;; *************** function _Lcd_Clear *****************
  5593 ;; Defined at:
  5594 ;;		line 40 in file "LCD_4.c"
  5595 ;; Parameters:    Size  Location     Type
  5596 ;;		None
  5597 ;; Auto vars:     Size  Location     Type
  5598 ;;		None
  5599 ;; Return value:  Size  Location     Type
  5600 ;;                  1    wreg      void 
  5601 ;; Registers used:
  5602 ;;		wreg, status,2, status,0, pclath, cstack
  5603 ;; Tracked objects:
  5604 ;;		On entry : 0/0
  5605 ;;		On exit  : 0/0
  5606 ;;		Unchanged: 0/0
  5607 ;; Data sizes:     COMMON   BANK0   BANK1   BANK3   BANK2
  5608 ;;      Params:         0       0       0       0       0
  5609 ;;      Locals:         0       0       0       0       0
  5610 ;;      Temps:          0       0       0       0       0
  5611 ;;      Totals:         0       0       0       0       0
  5612 ;;Total ram usage:        0 bytes
  5613 ;; Hardware stack levels used:    1
  5614 ;; Hardware stack levels required when called:    2
  5615 ;; This function calls:
  5616 ;;		_Lcd_Cmd
  5617 ;; This function is called by:
  5618 ;;		_main
  5619 ;; This function uses a non-reentrant model
  5620 ;;
  5621                           
  5622                           
  5623                           ;psect for function _Lcd_Clear
  5624  0A74                     _Lcd_Clear:
  5625  0A74                     l2186:	
  5626                           ;incstack = 0
  5627                           ; Regs used in _Lcd_Clear: [wreg+status,2+status,0+pclath+cstack]
  5628                           
  5629                           
  5630                           ;LCD_4.c: 41:     Lcd_Cmd(0);
  5631  0A74  3000               	movlw	0
  5632  0A75  120A  158A  2296  120A  158A  	fcall	_Lcd_Cmd
  5633                           
  5634                           ;LCD_4.c: 42:     Lcd_Cmd(1);
  5635  0A7A  3001               	movlw	1
  5636  0A7B  120A  158A  2296  120A  158A  	fcall	_Lcd_Cmd
  5637  0A80                     l115:
  5638  0A80  0008               	return
  5639  0A81                     __end_of_Lcd_Clear:
  5640                           
  5641                           	psect	text19
  5642  0A96                     __ptext19:	
  5643 ;; *************** function _Lcd_Cmd *****************
  5644 ;; Defined at:
  5645 ;;		line 32 in file "LCD_4.c"
  5646 ;; Parameters:    Size  Location     Type
  5647 ;;  a               1    wreg     unsigned char 
  5648 ;; Auto vars:     Size  Location     Type
  5649 ;;  a               1    3[COMMON] unsigned char 
  5650 ;; Return value:  Size  Location     Type
  5651 ;;                  1    wreg      void 
  5652 ;; Registers used:
  5653 ;;		wreg, status,2, status,0, pclath, cstack
  5654 ;; Tracked objects:
  5655 ;;		On entry : 0/0
  5656 ;;		On exit  : 0/0
  5657 ;;		Unchanged: 0/0
  5658 ;; Data sizes:     COMMON   BANK0   BANK1   BANK3   BANK2
  5659 ;;      Params:         0       0       0       0       0
  5660 ;;      Locals:         1       0       0       0       0
  5661 ;;      Temps:          2       0       0       0       0
  5662 ;;      Totals:         3       0       0       0       0
  5663 ;;Total ram usage:        3 bytes
  5664 ;; Hardware stack levels used:    1
  5665 ;; Hardware stack levels required when called:    1
  5666 ;; This function calls:
  5667 ;;		_Lcd_Port
  5668 ;; This function is called by:
  5669 ;;		_Lcd_Clear
  5670 ;;		_Lcd_Set_Cursor
  5671 ;;		_Lcd_Init
  5672 ;;		_Lcd_Shift_Right
  5673 ;;		_Lcd_Shift_Left
  5674 ;; This function uses a non-reentrant model
  5675 ;;
  5676                           
  5677                           
  5678                           ;psect for function _Lcd_Cmd
  5679  0A96                     _Lcd_Cmd:
  5680                           
  5681                           ;incstack = 0
  5682                           ; Regs used in _Lcd_Cmd: [wreg+status,2+status,0+pclath+cstack]
  5683                           ;Lcd_Cmd@a stored from wreg
  5684  0A96  00F3               	movwf	Lcd_Cmd@a
  5685  0A97                     l1678:
  5686                           
  5687                           ;LCD_4.c: 33:     PORTDbits.RD2 = 0;
  5688  0A97  1283               	bcf	3,5	;RP0=0, select bank0
  5689  0A98  1303               	bcf	3,6	;RP1=0, select bank0
  5690  0A99  1108               	bcf	8,2	;volatile
  5691  0A9A                     l1680:
  5692                           
  5693                           ;LCD_4.c: 34:     Lcd_Port(a);
  5694  0A9A  0873               	movf	Lcd_Cmd@a,w
  5695  0A9B  120A  158A  22B0  120A  158A  	fcall	_Lcd_Port
  5696  0AA0                     l1682:
  5697                           
  5698                           ;LCD_4.c: 35:     RD3 = 1;
  5699  0AA0  1283               	bcf	3,5	;RP0=0, select bank0
  5700  0AA1  1303               	bcf	3,6	;RP1=0, select bank0
  5701  0AA2  1588               	bsf	8,3	;volatile
  5702  0AA3                     l1684:
  5703                           
  5704                           ;LCD_4.c: 36:     _delay((unsigned long)((4)*(4000000/4000.0)));
  5705  0AA3  3006               	movlw	6
  5706  0AA4  00F2               	movwf	??_Lcd_Cmd+1
  5707  0AA5  3030               	movlw	48
  5708  0AA6  00F1               	movwf	??_Lcd_Cmd
  5709  0AA7                     u3007:
  5710  0AA7  0BF1               	decfsz	??_Lcd_Cmd,f
  5711  0AA8  2AA7               	goto	u3007
  5712  0AA9  0BF2               	decfsz	??_Lcd_Cmd+1,f
  5713  0AAA  2AA7               	goto	u3007
  5714  0AAB  0000               	nop
  5715  0AAC                     l1686:
  5716                           
  5717                           ;LCD_4.c: 37:     RD3 = 0;
  5718  0AAC  1283               	bcf	3,5	;RP0=0, select bank0
  5719  0AAD  1303               	bcf	3,6	;RP1=0, select bank0
  5720  0AAE  1188               	bcf	8,3	;volatile
  5721  0AAF                     l112:
  5722  0AAF  0008               	return
  5723  0AB0                     __end_of_Lcd_Cmd:
  5724                           
  5725                           	psect	text20
  5726  0AB0                     __ptext20:	
  5727 ;; *************** function _Lcd_Port *****************
  5728 ;; Defined at:
  5729 ;;		line 10 in file "LCD_4.c"
  5730 ;; Parameters:    Size  Location     Type
  5731 ;;  a               1    wreg     unsigned char 
  5732 ;; Auto vars:     Size  Location     Type
  5733 ;;  a               1    0[COMMON] unsigned char 
  5734 ;; Return value:  Size  Location     Type
  5735 ;;                  1    wreg      void 
  5736 ;; Registers used:
  5737 ;;		wreg
  5738 ;; Tracked objects:
  5739 ;;		On entry : 0/0
  5740 ;;		On exit  : 0/0
  5741 ;;		Unchanged: 0/0
  5742 ;; Data sizes:     COMMON   BANK0   BANK1   BANK3   BANK2
  5743 ;;      Params:         0       0       0       0       0
  5744 ;;      Locals:         1       0       0       0       0
  5745 ;;      Temps:          0       0       0       0       0
  5746 ;;      Totals:         1       0       0       0       0
  5747 ;;Total ram usage:        1 bytes
  5748 ;; Hardware stack levels used:    1
  5749 ;; This function calls:
  5750 ;;		Nothing
  5751 ;; This function is called by:
  5752 ;;		_Lcd_Cmd
  5753 ;;		_Lcd_Init
  5754 ;;		_Lcd_Write_Char
  5755 ;; This function uses a non-reentrant model
  5756 ;;
  5757                           
  5758                           
  5759                           ;psect for function _Lcd_Port
  5760  0AB0                     _Lcd_Port:
  5761                           
  5762                           ;incstack = 0
  5763                           ; Regs used in _Lcd_Port: [wreg]
  5764                           ;Lcd_Port@a stored from wreg
  5765  0AB0  00F0               	movwf	Lcd_Port@a
  5766  0AB1                     l1598:
  5767                           
  5768                           ;LCD_4.c: 11:     if (a & 1)
  5769  0AB1  1C70               	btfss	Lcd_Port@a,0
  5770  0AB2  2AB4               	goto	u1441
  5771  0AB3  2AB5               	goto	u1440
  5772  0AB4                     u1441:
  5773  0AB4  2AB9               	goto	l101
  5774  0AB5                     u1440:
  5775  0AB5                     l1600:
  5776                           
  5777                           ;LCD_4.c: 12:         RD4 = 1;
  5778  0AB5  1283               	bcf	3,5	;RP0=0, select bank0
  5779  0AB6  1303               	bcf	3,6	;RP1=0, select bank0
  5780  0AB7  1608               	bsf	8,4	;volatile
  5781  0AB8  2ABC               	goto	l102
  5782  0AB9                     l101:	
  5783                           ;LCD_4.c: 13:     else
  5784                           
  5785                           
  5786                           ;LCD_4.c: 14:         RD4 = 0;
  5787  0AB9  1283               	bcf	3,5	;RP0=0, select bank0
  5788  0ABA  1303               	bcf	3,6	;RP1=0, select bank0
  5789  0ABB  1208               	bcf	8,4	;volatile
  5790  0ABC                     l102:
  5791                           
  5792                           ;LCD_4.c: 16:     if (a & 2)
  5793  0ABC  1CF0               	btfss	Lcd_Port@a,1
  5794  0ABD  2ABF               	goto	u1451
  5795  0ABE  2AC0               	goto	u1450
  5796  0ABF                     u1451:
  5797  0ABF  2AC2               	goto	l103
  5798  0AC0                     u1450:
  5799  0AC0                     l1602:
  5800                           
  5801                           ;LCD_4.c: 17:         RD5 = 1;
  5802  0AC0  1688               	bsf	8,5	;volatile
  5803  0AC1  2AC3               	goto	l104
  5804  0AC2                     l103:	
  5805                           ;LCD_4.c: 18:     else
  5806                           
  5807                           
  5808                           ;LCD_4.c: 19:         RD5 = 0;
  5809  0AC2  1288               	bcf	8,5	;volatile
  5810  0AC3                     l104:
  5811                           
  5812                           ;LCD_4.c: 21:     if (a & 4)
  5813  0AC3  1D70               	btfss	Lcd_Port@a,2
  5814  0AC4  2AC6               	goto	u1461
  5815  0AC5  2AC7               	goto	u1460
  5816  0AC6                     u1461:
  5817  0AC6  2AC9               	goto	l105
  5818  0AC7                     u1460:
  5819  0AC7                     l1604:
  5820                           
  5821                           ;LCD_4.c: 22:         RD6 = 1;
  5822  0AC7  1708               	bsf	8,6	;volatile
  5823  0AC8  2ACA               	goto	l106
  5824  0AC9                     l105:	
  5825                           ;LCD_4.c: 23:     else
  5826                           
  5827                           
  5828                           ;LCD_4.c: 24:         RD6 = 0;
  5829  0AC9  1308               	bcf	8,6	;volatile
  5830  0ACA                     l106:
  5831                           
  5832                           ;LCD_4.c: 26:     if (a & 8)
  5833  0ACA  1DF0               	btfss	Lcd_Port@a,3
  5834  0ACB  2ACD               	goto	u1471
  5835  0ACC  2ACE               	goto	u1470
  5836  0ACD                     u1471:
  5837  0ACD  2AD0               	goto	l107
  5838  0ACE                     u1470:
  5839  0ACE                     l1606:
  5840                           
  5841                           ;LCD_4.c: 27:         RD7 = 1;
  5842  0ACE  1788               	bsf	8,7	;volatile
  5843  0ACF  2AD1               	goto	l109
  5844  0AD0                     l107:	
  5845                           ;LCD_4.c: 28:     else
  5846                           
  5847                           
  5848                           ;LCD_4.c: 29:         RD7 = 0;
  5849  0AD0  1388               	bcf	8,7	;volatile
  5850  0AD1                     l109:
  5851  0AD1  0008               	return
  5852  0AD2                     __end_of_Lcd_Port:
  5853                           
  5854                           	psect	text21
  5855  0A5D                     __ptext21:	
  5856 ;; *************** function _I2C_Master_Write *****************
  5857 ;; Defined at:
  5858 ;;		line 66 in file "I2C.c"
  5859 ;; Parameters:    Size  Location     Type
  5860 ;;  d               2    0[COMMON] unsigned int 
  5861 ;; Auto vars:     Size  Location     Type
  5862 ;;		None
  5863 ;; Return value:  Size  Location     Type
  5864 ;;                  1    wreg      void 
  5865 ;; Registers used:
  5866 ;;		wreg, status,2, status,0, pclath, cstack
  5867 ;; Tracked objects:
  5868 ;;		On entry : 0/0
  5869 ;;		On exit  : 0/0
  5870 ;;		Unchanged: 0/0
  5871 ;; Data sizes:     COMMON   BANK0   BANK1   BANK3   BANK2
  5872 ;;      Params:         2       0       0       0       0
  5873 ;;      Locals:         0       0       0       0       0
  5874 ;;      Temps:          0       0       0       0       0
  5875 ;;      Totals:         2       0       0       0       0
  5876 ;;Total ram usage:        2 bytes
  5877 ;; Hardware stack levels used:    1
  5878 ;; Hardware stack levels required when called:    1
  5879 ;; This function calls:
  5880 ;;		_I2C_Master_Wait
  5881 ;; This function is called by:
  5882 ;;		_main
  5883 ;; This function uses a non-reentrant model
  5884 ;;
  5885                           
  5886                           
  5887                           ;psect for function _I2C_Master_Write
  5888  0A5D                     _I2C_Master_Write:
  5889  0A5D                     l2220:	
  5890                           ;incstack = 0
  5891                           ; Regs used in _I2C_Master_Write: [wreg+status,2+status,0+pclath+cstack]
  5892                           
  5893                           
  5894                           ;I2C.c: 66: void I2C_Master_Write(unsigned d);I2C.c: 67: {;I2C.c: 68:     I2C_Master_Wai
      +                          t();
  5895  0A5D  120A  158A  2267  120A  158A  	fcall	_I2C_Master_Wait
  5896  0A62                     l2222:
  5897                           
  5898                           ;I2C.c: 69:     SSPBUF = d;
  5899  0A62  0870               	movf	I2C_Master_Write@d,w
  5900  0A63  1283               	bcf	3,5	;RP0=0, select bank0
  5901  0A64  1303               	bcf	3,6	;RP1=0, select bank0
  5902  0A65  0093               	movwf	19	;volatile
  5903  0A66                     l186:
  5904  0A66  0008               	return
  5905  0A67                     __end_of_I2C_Master_Write:
  5906                           
  5907                           	psect	text22
  5908  0A54                     __ptext22:	
  5909 ;; *************** function _I2C_Master_Stop *****************
  5910 ;; Defined at:
  5911 ;;		line 56 in file "I2C.c"
  5912 ;; Parameters:    Size  Location     Type
  5913 ;;		None
  5914 ;; Auto vars:     Size  Location     Type
  5915 ;;		None
  5916 ;; Return value:  Size  Location     Type
  5917 ;;                  1    wreg      void 
  5918 ;; Registers used:
  5919 ;;		wreg, status,2, status,0, pclath, cstack
  5920 ;; Tracked objects:
  5921 ;;		On entry : 0/0
  5922 ;;		On exit  : 0/0
  5923 ;;		Unchanged: 0/0
  5924 ;; Data sizes:     COMMON   BANK0   BANK1   BANK3   BANK2
  5925 ;;      Params:         0       0       0       0       0
  5926 ;;      Locals:         0       0       0       0       0
  5927 ;;      Temps:          0       0       0       0       0
  5928 ;;      Totals:         0       0       0       0       0
  5929 ;;Total ram usage:        0 bytes
  5930 ;; Hardware stack levels used:    1
  5931 ;; Hardware stack levels required when called:    1
  5932 ;; This function calls:
  5933 ;;		_I2C_Master_Wait
  5934 ;; This function is called by:
  5935 ;;		_main
  5936 ;; This function uses a non-reentrant model
  5937 ;;
  5938                           
  5939                           
  5940                           ;psect for function _I2C_Master_Stop
  5941  0A54                     _I2C_Master_Stop:
  5942  0A54                     l2240:	
  5943                           ;incstack = 0
  5944                           ; Regs used in _I2C_Master_Stop: [wreg+status,2+status,0+pclath+cstack]
  5945                           
  5946                           
  5947                           ;I2C.c: 58:     I2C_Master_Wait();
  5948  0A54  120A  158A  2267  120A  158A  	fcall	_I2C_Master_Wait
  5949  0A59                     l2242:
  5950                           
  5951                           ;I2C.c: 59:     SSPCON2bits.PEN = 1;
  5952  0A59  1683               	bsf	3,5	;RP0=1, select bank1
  5953  0A5A  1303               	bcf	3,6	;RP1=0, select bank1
  5954  0A5B  1511               	bsf	17,2	;volatile
  5955  0A5C                     l183:
  5956  0A5C  0008               	return
  5957  0A5D                     __end_of_I2C_Master_Stop:
  5958                           
  5959                           	psect	text23
  5960  0A4B                     __ptext23:	
  5961 ;; *************** function _I2C_Master_Start *****************
  5962 ;; Defined at:
  5963 ;;		line 40 in file "I2C.c"
  5964 ;; Parameters:    Size  Location     Type
  5965 ;;		None
  5966 ;; Auto vars:     Size  Location     Type
  5967 ;;		None
  5968 ;; Return value:  Size  Location     Type
  5969 ;;                  1    wreg      void 
  5970 ;; Registers used:
  5971 ;;		wreg, status,2, status,0, pclath, cstack
  5972 ;; Tracked objects:
  5973 ;;		On entry : 0/0
  5974 ;;		On exit  : 0/0
  5975 ;;		Unchanged: 0/0
  5976 ;; Data sizes:     COMMON   BANK0   BANK1   BANK3   BANK2
  5977 ;;      Params:         0       0       0       0       0
  5978 ;;      Locals:         0       0       0       0       0
  5979 ;;      Temps:          0       0       0       0       0
  5980 ;;      Totals:         0       0       0       0       0
  5981 ;;Total ram usage:        0 bytes
  5982 ;; Hardware stack levels used:    1
  5983 ;; Hardware stack levels required when called:    1
  5984 ;; This function calls:
  5985 ;;		_I2C_Master_Wait
  5986 ;; This function is called by:
  5987 ;;		_main
  5988 ;; This function uses a non-reentrant model
  5989 ;;
  5990                           
  5991                           
  5992                           ;psect for function _I2C_Master_Start
  5993  0A4B                     _I2C_Master_Start:
  5994  0A4B                     l2216:	
  5995                           ;incstack = 0
  5996                           ; Regs used in _I2C_Master_Start: [wreg+status,2+status,0+pclath+cstack]
  5997                           
  5998                           
  5999                           ;I2C.c: 42:     I2C_Master_Wait();
  6000  0A4B  120A  158A  2267  120A  158A  	fcall	_I2C_Master_Wait
  6001  0A50                     l2218:
  6002                           
  6003                           ;I2C.c: 43:     SSPCON2bits.SEN = 1;
  6004  0A50  1683               	bsf	3,5	;RP0=1, select bank1
  6005  0A51  1303               	bcf	3,6	;RP1=0, select bank1
  6006  0A52  1411               	bsf	17,0	;volatile
  6007  0A53                     l177:
  6008  0A53  0008               	return
  6009  0A54                     __end_of_I2C_Master_Start:
  6010                           
  6011                           	psect	text24
  6012  0B41                     __ptext24:	
  6013 ;; *************** function _I2C_Master_Read *****************
  6014 ;; Defined at:
  6015 ;;		line 75 in file "I2C.c"
  6016 ;; Parameters:    Size  Location     Type
  6017 ;;  a               2    0[COMMON] unsigned short 
  6018 ;; Auto vars:     Size  Location     Type
  6019 ;;  temp            2    4[COMMON] unsigned short 
  6020 ;; Return value:  Size  Location     Type
  6021 ;;                  2    0[COMMON] unsigned short 
  6022 ;; Registers used:
  6023 ;;		wreg, status,2, status,0, pclath, cstack
  6024 ;; Tracked objects:
  6025 ;;		On entry : 0/0
  6026 ;;		On exit  : 0/0
  6027 ;;		Unchanged: 0/0
  6028 ;; Data sizes:     COMMON   BANK0   BANK1   BANK3   BANK2
  6029 ;;      Params:         2       0       0       0       0
  6030 ;;      Locals:         2       0       0       0       0
  6031 ;;      Temps:          2       0       0       0       0
  6032 ;;      Totals:         6       0       0       0       0
  6033 ;;Total ram usage:        6 bytes
  6034 ;; Hardware stack levels used:    1
  6035 ;; Hardware stack levels required when called:    1
  6036 ;; This function calls:
  6037 ;;		_I2C_Master_Wait
  6038 ;; This function is called by:
  6039 ;;		_main
  6040 ;; This function uses a non-reentrant model
  6041 ;;
  6042                           
  6043                           
  6044                           ;psect for function _I2C_Master_Read
  6045  0B41                     _I2C_Master_Read:
  6046  0B41                     l2224:	
  6047                           ;incstack = 0
  6048                           ; Regs used in _I2C_Master_Read: [wreg+status,2+status,0+pclath+cstack]
  6049                           
  6050                           
  6051                           ;I2C.c: 75: unsigned short I2C_Master_Read(unsigned short a);I2C.c: 76: {;I2C.c: 77:    
      +                           unsigned short temp;;I2C.c: 78:     I2C_Master_Wait();
  6052  0B41  120A  158A  2267  120A  158A  	fcall	_I2C_Master_Wait
  6053  0B46                     l2226:
  6054                           
  6055                           ;I2C.c: 79:     SSPCON2bits.RCEN = 1;
  6056  0B46  1683               	bsf	3,5	;RP0=1, select bank1
  6057  0B47  1303               	bcf	3,6	;RP1=0, select bank1
  6058  0B48  1591               	bsf	17,3	;volatile
  6059                           
  6060                           ;I2C.c: 80:     I2C_Master_Wait();
  6061  0B49  120A  158A  2267  120A  158A  	fcall	_I2C_Master_Wait
  6062  0B4E                     l2228:
  6063                           
  6064                           ;I2C.c: 81:     temp = SSPBUF;
  6065  0B4E  1283               	bcf	3,5	;RP0=0, select bank0
  6066  0B4F  1303               	bcf	3,6	;RP1=0, select bank0
  6067  0B50  0813               	movf	19,w	;volatile
  6068  0B51  00F2               	movwf	??_I2C_Master_Read
  6069  0B52  01F3               	clrf	??_I2C_Master_Read+1
  6070  0B53  0872               	movf	??_I2C_Master_Read,w
  6071  0B54  00F4               	movwf	I2C_Master_Read@temp
  6072  0B55  0873               	movf	??_I2C_Master_Read+1,w
  6073  0B56  00F5               	movwf	I2C_Master_Read@temp+1
  6074  0B57                     l2230:
  6075                           
  6076                           ;I2C.c: 82:     I2C_Master_Wait();
  6077  0B57  120A  158A  2267  120A  158A  	fcall	_I2C_Master_Wait
  6078  0B5C                     l2232:
  6079                           
  6080                           ;I2C.c: 83:     if(a == 1){
  6081  0B5C  0370               	decf	I2C_Master_Read@a,w
  6082  0B5D  0471               	iorwf	I2C_Master_Read@a+1,w
  6083  0B5E  1D03               	btfss	3,2
  6084  0B5F  2B61               	goto	u2861
  6085  0B60  2B62               	goto	u2860
  6086  0B61                     u2861:
  6087  0B61  2B66               	goto	l189
  6088  0B62                     u2860:
  6089  0B62                     l2234:
  6090                           
  6091                           ;I2C.c: 84:         SSPCON2bits.ACKDT = 0;
  6092  0B62  1683               	bsf	3,5	;RP0=1, select bank1
  6093  0B63  1303               	bcf	3,6	;RP1=0, select bank1
  6094  0B64  1291               	bcf	17,5	;volatile
  6095                           
  6096                           ;I2C.c: 85:     }else{
  6097  0B65  2B69               	goto	l190
  6098  0B66                     l189:
  6099                           
  6100                           ;I2C.c: 86:         SSPCON2bits.ACKDT = 1;
  6101  0B66  1683               	bsf	3,5	;RP0=1, select bank1
  6102  0B67  1303               	bcf	3,6	;RP1=0, select bank1
  6103  0B68  1691               	bsf	17,5	;volatile
  6104  0B69                     l190:	
  6105                           ;I2C.c: 87:     }
  6106                           
  6107                           
  6108                           ;I2C.c: 88:     SSPCON2bits.ACKEN = 1;
  6109  0B69  1611               	bsf	17,4	;volatile
  6110  0B6A                     l2236:
  6111                           
  6112                           ;I2C.c: 89:     return temp;
  6113  0B6A  0875               	movf	I2C_Master_Read@temp+1,w
  6114  0B6B  00F1               	movwf	?_I2C_Master_Read+1
  6115  0B6C  0874               	movf	I2C_Master_Read@temp,w
  6116  0B6D  00F0               	movwf	?_I2C_Master_Read
  6117  0B6E                     l191:
  6118  0B6E  0008               	return
  6119  0B6F                     __end_of_I2C_Master_Read:
  6120                           
  6121                           	psect	text25
  6122  0A67                     __ptext25:	
  6123 ;; *************** function _I2C_Master_Wait *****************
  6124 ;; Defined at:
  6125 ;;		line 33 in file "I2C.c"
  6126 ;; Parameters:    Size  Location     Type
  6127 ;;		None
  6128 ;; Auto vars:     Size  Location     Type
  6129 ;;		None
  6130 ;; Return value:  Size  Location     Type
  6131 ;;                  1    wreg      void 
  6132 ;; Registers used:
  6133 ;;		wreg, status,2
  6134 ;; Tracked objects:
  6135 ;;		On entry : 0/0
  6136 ;;		On exit  : 0/0
  6137 ;;		Unchanged: 0/0
  6138 ;; Data sizes:     COMMON   BANK0   BANK1   BANK3   BANK2
  6139 ;;      Params:         0       0       0       0       0
  6140 ;;      Locals:         0       0       0       0       0
  6141 ;;      Temps:          0       0       0       0       0
  6142 ;;      Totals:         0       0       0       0       0
  6143 ;;Total ram usage:        0 bytes
  6144 ;; Hardware stack levels used:    1
  6145 ;; This function calls:
  6146 ;;		Nothing
  6147 ;; This function is called by:
  6148 ;;		_I2C_Master_Start
  6149 ;;		_I2C_Master_Stop
  6150 ;;		_I2C_Master_Write
  6151 ;;		_I2C_Master_Read
  6152 ;;		_I2C_Master_RepeatedStart
  6153 ;; This function uses a non-reentrant model
  6154 ;;
  6155                           
  6156                           
  6157                           ;psect for function _I2C_Master_Wait
  6158  0A67                     _I2C_Master_Wait:
  6159  0A67                     l1688:	
  6160                           ;incstack = 0
  6161                           ; Regs used in _I2C_Master_Wait: [wreg+status,2]
  6162                           
  6163  0A67                     l171:	
  6164                           ;I2C.c: 35:     while ((SSPSTAT & 0x04) || (SSPCON2 & 0x1F));
  6165                           
  6166  0A67  1683               	bsf	3,5	;RP0=1, select bank1
  6167  0A68  1303               	bcf	3,6	;RP1=0, select bank1
  6168  0A69  1914               	btfsc	20,2	;volatile
  6169  0A6A  2A6C               	goto	u1601
  6170  0A6B  2A6D               	goto	u1600
  6171  0A6C                     u1601:
  6172  0A6C  2A67               	goto	l171
  6173  0A6D                     u1600:
  6174  0A6D                     l1690:
  6175  0A6D  0811               	movf	17,w	;volatile
  6176  0A6E  391F               	andlw	31
  6177  0A6F  1D03               	btfss	3,2
  6178  0A70  2A72               	goto	u1611
  6179  0A71  2A73               	goto	u1610
  6180  0A72                     u1611:
  6181  0A72  2A67               	goto	l171
  6182  0A73                     u1610:
  6183  0A73                     l174:
  6184  0A73  0008               	return
  6185  0A74                     __end_of_I2C_Master_Wait:
  6186  007E                     btemp	set	126	;btemp
  6187  007E                     wtemp0	set	126
  6188                           
  6189                           	psect	config
  6190                           
  6191                           ;Config register CONFIG1 @ 0x2007
  6192                           ;	Oscillator Selection bits
  6193                           ;	FOSC = INTRC_NOCLKOUT, INTOSCIO oscillator: I/O function on RA6/OSC2/CLKOUT pin, I/O f
      +                          unction on RA7/OSC1/CLKIN
  6194                           ;	Watchdog Timer Enable bit
  6195                           ;	WDTE = OFF, WDT disabled and can be enabled by SWDTEN bit of the WDTCON register
  6196                           ;	Power-up Timer Enable bit
  6197                           ;	PWRTE = OFF, PWRT disabled
  6198                           ;	RE3/MCLR pin function select bit
  6199                           ;	MCLRE = OFF, RE3/MCLR pin function is digital input, MCLR internally tied to VDD
  6200                           ;	Code Protection bit
  6201                           ;	CP = OFF, Program memory code protection is disabled
  6202                           ;	Data Code Protection bit
  6203                           ;	CPD = OFF, Data memory code protection is disabled
  6204                           ;	Brown Out Reset Selection bits
  6205                           ;	BOREN = OFF, BOR disabled
  6206                           ;	Internal External Switchover bit
  6207                           ;	IESO = OFF, Internal/External Switchover mode is disabled
  6208                           ;	Fail-Safe Clock Monitor Enabled bit
  6209                           ;	FCMEN = OFF, Fail-Safe Clock Monitor is disabled
  6210                           ;	Low Voltage Programming Enable bit
  6211                           ;	LVP = OFF, RB3 pin has digital I/O, HV on MCLR must be used for programming
  6212                           ;	In-Circuit Debugger Mode bit
  6213                           ;	DEBUG = 0x1, unprogrammed default
  6214  2007                     	org	8199
  6215  2007  20D4               	dw	8404
  6216                           
  6217                           ;Config register CONFIG2 @ 0x2008
  6218                           ;	Brown-out Reset Selection bit
  6219                           ;	BOR4V = BOR40V, Brown-out Reset set to 4.0V
  6220                           ;	Flash Program Memory Self Write Enable bits
  6221                           ;	WRT = OFF, Write protection off
  6222  2008                     	org	8200
  6223  2008  3FFF               	dw	16383

Data Sizes:
    Strings     24
    Constant    0
    Data        0
    BSS         14
    Persistent  0
    Stack       0

Auto Spaces:
    Space          Size  Autos    Used
    COMMON           14     14      14
    BANK0            80     67      77
    BANK1            80      0       4
    BANK3            96      0       0
    BANK2            96      0       0

Pointer List with Targets:

    Lcd_Write_String@a	PTR unsigned char  size(1) Largest target is 16
		 -> STR_4(CODE[3]), STR_3(CODE[3]), STR_2(CODE[2]), STR_1(CODE[16]), 


Critical Paths under _main in COMMON

    _main->_decimal
    _voltaje->___xxtofl
    _I2C_Master_Init->___lldiv
    _decimal->___awdiv
    _Temperatura->___xxtofl
    ___fltol->___xxtofl
    ___flmul->___xxtofl
    ___fladd->___xxtofl
    _Lcd_Write_String->_Lcd_Write_Char
    _Lcd_Write_Char->_Lcd_Port
    _Lcd_Set_Cursor->_Lcd_Cmd
    _Lcd_Init->_Lcd_Cmd
    _Lcd_Clear->_Lcd_Cmd
    _Lcd_Cmd->_Lcd_Port

Critical Paths under _main in BANK0

    _main->_Temperatura
    _main->_voltaje
    _voltaje->___fltol
    _setup->_I2C_Master_Init
    _Temperatura->___fltol
    ___fltol->___fladd
    ___fladd->___flmul

Critical Paths under _main in BANK1

    None.

Critical Paths under _main in BANK3

    None.

Critical Paths under _main in BANK2

    None.

Call Graph Tables:

 ---------------------------------------------------------------------------------
 (Depth) Function   	        Calls       Base Space   Used Autos Params    Refs
 ---------------------------------------------------------------------------------
 (0) _main                                                 3     3      0   17551
                                             64 BANK0      3     3      0
                    _I2C_Master_Read
                   _I2C_Master_Start
                    _I2C_Master_Stop
                   _I2C_Master_Write
                          _Lcd_Clear
                           _Lcd_Init
                     _Lcd_Set_Cursor
                     _Lcd_Write_Char
                   _Lcd_Write_String
                        _Temperatura
                            _decimal
                              _setup
                            _voltaje
 ---------------------------------------------------------------------------------
 (1) _voltaje                                              7     7      0    5342
                                             57 BANK0      7     7      0
                            ___awdiv
                             ___bmul
                            ___flmul
                            ___fltol
                           ___xxtofl
 ---------------------------------------------------------------------------------
 (1) _setup                                                0     0      0     412
                    _I2C_Master_Init
 ---------------------------------------------------------------------------------
 (2) _I2C_Master_Init                                      8     4      4     412
                                              0 BANK0      8     4      4
                            ___lldiv
 ---------------------------------------------------------------------------------
 (3) ___lldiv                                             14     6      8     314
                                              0 COMMON    14     6      8
 ---------------------------------------------------------------------------------
 (1) _decimal                                              5     5      0    1895
                                              9 COMMON     5     5      0
                            ___awdiv
                             ___bmul
 ---------------------------------------------------------------------------------
 (1) _Temperatura                                          7     7      0    7581
                                             57 BANK0      7     7      0
                            ___awdiv
                             ___bmul
                            ___fladd
                            ___flmul
                            ___fltol
                           ___xxtofl
 ---------------------------------------------------------------------------------
 (2) ___xxtofl                                            14    10      4     474
                                              0 COMMON    14    10      4
 ---------------------------------------------------------------------------------
 (2) ___fltol                                             11     7      4     381
                                             46 BANK0     11     7      4
                            ___fladd (ARG)
                            ___flmul (ARG)
                           ___xxtofl (ARG)
 ---------------------------------------------------------------------------------
 (2) ___flmul                                             26    18      8    2569
                                              0 BANK0     26    18      8
                          __Umul8_16
                           ___xxtofl (ARG)
 ---------------------------------------------------------------------------------
 (3) __Umul8_16                                            9     7      2     799
                                              0 COMMON     9     7      2
 ---------------------------------------------------------------------------------
 (2) ___fladd                                             20    12      8    2262
                                             26 BANK0     20    12      8
                            ___flmul (ARG)
                           ___xxtofl (ARG)
 ---------------------------------------------------------------------------------
 (2) ___bmul                                               4     3      1     548
                                              0 COMMON     4     3      1
 ---------------------------------------------------------------------------------
 (2) ___awdiv                                              9     5      4    1212
                                              0 COMMON     9     5      4
 ---------------------------------------------------------------------------------
 (1) _Lcd_Write_String                                     3     3      0     400
                                              5 COMMON     3     3      0
                     _Lcd_Write_Char
 ---------------------------------------------------------------------------------
 (2) _Lcd_Write_Char                                       4     4      0     178
                                              1 COMMON     4     4      0
                           _Lcd_Port
 ---------------------------------------------------------------------------------
 (1) _Lcd_Set_Cursor                                       7     6      1     760
                                              4 COMMON     7     6      1
                            _Lcd_Cmd
 ---------------------------------------------------------------------------------
 (1) _Lcd_Init                                             2     2      0     198
                                              4 COMMON     2     2      0
                            _Lcd_Cmd
                           _Lcd_Port
 ---------------------------------------------------------------------------------
 (1) _Lcd_Clear                                            0     0      0     110
                            _Lcd_Cmd
 ---------------------------------------------------------------------------------
 (2) _Lcd_Cmd                                              3     3      0     110
                                              1 COMMON     3     3      0
                           _Lcd_Port
 ---------------------------------------------------------------------------------
 (3) _Lcd_Port                                             1     1      0      88
                                              0 COMMON     1     1      0
 ---------------------------------------------------------------------------------
 (1) _I2C_Master_Write                                     2     0      2     402
                                              0 COMMON     2     0      2
                    _I2C_Master_Wait
 ---------------------------------------------------------------------------------
 (1) _I2C_Master_Stop                                      0     0      0       0
                    _I2C_Master_Wait
 ---------------------------------------------------------------------------------
 (1) _I2C_Master_Start                                     0     0      0       0
                    _I2C_Master_Wait
 ---------------------------------------------------------------------------------
 (1) _I2C_Master_Read                                      6     4      2     273
                                              0 COMMON     6     4      2
                    _I2C_Master_Wait
 ---------------------------------------------------------------------------------
 (2) _I2C_Master_Wait                                      0     0      0       0
 ---------------------------------------------------------------------------------
 Estimated maximum stack depth 3
 ---------------------------------------------------------------------------------

 Call Graph Graphs:

 _main (ROOT)
   _I2C_Master_Read
     _I2C_Master_Wait
   _I2C_Master_Start
     _I2C_Master_Wait
   _I2C_Master_Stop
     _I2C_Master_Wait
   _I2C_Master_Write
     _I2C_Master_Wait
   _Lcd_Clear
     _Lcd_Cmd
       _Lcd_Port
   _Lcd_Init
     _Lcd_Cmd
       _Lcd_Port
     _Lcd_Port
   _Lcd_Set_Cursor
     _Lcd_Cmd
       _Lcd_Port
   _Lcd_Write_Char
     _Lcd_Port
   _Lcd_Write_String
     _Lcd_Write_Char
       _Lcd_Port
   _Temperatura
     ___awdiv
     ___bmul
     ___fladd
       ___flmul (ARG)
         __Umul8_16
         ___xxtofl (ARG)
       ___xxtofl (ARG)
     ___flmul
       __Umul8_16
       ___xxtofl (ARG)
     ___fltol
       ___fladd (ARG)
         ___flmul (ARG)
           __Umul8_16
           ___xxtofl (ARG)
         ___xxtofl (ARG)
       ___flmul (ARG)
         __Umul8_16
         ___xxtofl (ARG)
       ___xxtofl (ARG)
     ___xxtofl
   _decimal
     ___awdiv
     ___bmul
   _setup
     _I2C_Master_Init
       ___lldiv
   _voltaje
     ___awdiv
     ___bmul
     ___flmul
       __Umul8_16
       ___xxtofl (ARG)
     ___fltol
       ___fladd (ARG)
         ___flmul (ARG)
           __Umul8_16
           ___xxtofl (ARG)
         ___xxtofl (ARG)
       ___flmul (ARG)
         __Umul8_16
         ___xxtofl (ARG)
       ___xxtofl (ARG)
     ___xxtofl

 Address spaces:
Name               Size   Autos  Total    Cost      Usage
BITCOMMON            E      0       0       0        0.0%
EEDATA             100      0       0       0        0.0%
NULL                 0      0       0       0        0.0%
CODE                 0      0       0       0        0.0%
COMMON               E      E       E       1      100.0%
BITSFR0              0      0       0       1        0.0%
SFR0                 0      0       0       1        0.0%
BITSFR1              0      0       0       2        0.0%
SFR1                 0      0       0       2        0.0%
STACK                0      0       0       2        0.0%
ABS                  0      0      5F       3        0.0%
BITBANK0            50      0       0       4        0.0%
BITSFR3              0      0       0       4        0.0%
SFR3                 0      0       0       4        0.0%
BANK0               50     43      4D       5       96.2%
BITSFR2              0      0       0       5        0.0%
SFR2                 0      0       0       5        0.0%
BITBANK1            50      0       0       6        0.0%
BANK1               50      0       4       7        5.0%
BITBANK3            60      0       0       8        0.0%
BANK3               60      0       0       9        0.0%
BITBANK2            60      0       0      10        0.0%
BANK2               60      0       0      11        0.0%
DATA                 0      0      5F      12        0.0%


Microchip Technology PIC Macro Assembler V2.31 build 20201012212115 
Symbol Table                                                                                   Wed Aug 11 02:36:35 2021

                        pc 0002             ___bmul@product 0072                         l81 0E8C  
                       l67 0AF4                         l84 0F45                         l78 0C9D  
             ___awdiv@sign 0076                         _un 006B                         fsr 0004  
      __Umul8_16@word_mpld 0076                        l101 0AB9                        l102 0ABC  
                      l103 0AC2                        l104 0AC3                        l112 0AAF  
                      l105 0AC9                        l121 0054                        l106 0ACA  
                      l107 0AD0                        l115 0A80                        l124 0C3A  
                      l109 0AD1                        l133 0B19                        l127 0BA5  
                      l306 0A95                        l171 0A67                        l316 0D03  
                      l174 0A73                        l190 0B69                        l191 0B6E  
                      l183 0A5C                        l168 0BDD                        l177 0A53  
                      l433 0D6A                        l186 0A66                        l604 041C  
                      l189 0B66                        l615 047C                        l607 045A  
                      l616 0488                        l473 0DD1                        l713 0F68  
                      l466 0DE6                        l715 0FFF                        l476 0DE6  
                      l573 0264                        l726 0FC9                        l727 0FD5  
                      l719 0FAD                        l577 030B                        l681 07DD  
                      l594 03D6                        l586 0488                        l690 0B40  
                      l579 02E2                        l675 0755                        l669 07E9  
                      l598 03FA                        l688 0B2E                        _GIE 005F  
                      _RD3 0043                        _RD4 0044                        _RD5 0045  
                      _RD6 0046                        _RD7 0047                        _POT 0068  
                      _VOL 006C                        _dec 006A                        _cen 0069  
                      fsr0 0004               ___flmul@aexp 0032               ___flmul@bexp 0033  
             ___flmul@sign 002D               ___flmul@temp 0038               ___flmul@prod 0034  
             ___fltol@exp1 0058                       l2000 04BC                       l2010 04D1  
                     l2002 04C2                       l2100 079D                       l2020 04ED  
                     l2012 04D9                       l2004 04C6                       l2110 07D1  
                     l2102 07A8                       l2030 0530                       l2014 04DB  
                     l2006 04C7                       l2200 0032                       l2112 07D5  
                     l2104 07B7                       l2040 05B9                       l2032 054C  
                     l2024 04F6                       l2016 04E3                       l2008 04CC  
                     l2120 0F47                       l2202 0043                       l2210 0AF9  
                     l2114 07D6                       l2106 07C1                       l2050 062C  
                     l2042 05C9                       l2034 0578                       l2026 0506  
                     l2018 04E8                       l2122 0F4C                       l2220 0A5D  
                     l2204 0048                       l2212 0B06                       l2116 07E1  
                     l2108 07C3                       l2060 06D9                       l2052 0649  
                     l2044 05E6                       l2036 0594                       l2028 0513  
                     l2140 0F96                       l2132 0F79                       l2124 0F50  
                     l2300 006C                       l2230 0B57                       l2222 0A62  
                     l2206 004E                       l2214 0B0C                       l2070 0725  
                     l2062 0701                       l2054 0676                       l2046 05F6  
                     l2038 05B0                       l2150 0FCD                       l2142 0FA4  
                     l2134 0F7E                       l2126 0F60                       l2310 0095  
                     l2302 0072                       l2232 0B5C                       l2224 0B41  
                     l2216 0A4B                       l2240 0A54                       l1600 0AB5  
                     l2208 0AF6                       l2080 073A                       l2072 0726  
                     l2064 070A                       l2056 0686                       l2048 0613  
                     l2160 0FF7                       l2152 0FD7                       l2144 0FB4  
                     l2136 0F8B                       l2128 0F70                       l2320 00C5  
                     l2312 009A                       l2304 0079                       l2234 0B62  
                     l2226 0B46                       l2218 0A50                       l2242 0A59  
                     l1602 0AC0                       l2090 075F                       l2082 073E  
                     l2074 072F                       l2066 0718                       l2058 06B3  
                     l2154 0FED                       l2146 0FBF                       l2138 0F92  
                     l1610 0CAE                       l2170 0AE3                       l2250 0E43  
                     l2330 00F0                       l2322 00CA                       l2314 00A9  
                     l2306 007E                       l2236 0B6A                       l2228 0B4E  
                     l1604 0AC7                       l2180 0BED                       l1700 0A8D  
                     l2092 076D                       l2084 0752                       l2068 0721  
                     l2076 0735                       l2156 0FF2                       l2148 0FC3  
                     l1620 0CDD                       l1612 0CB1                       l2172 0AE4  
                     l2164 0AD2                       l2260 0E82                       l2252 0E53  
                     l2244 0DEA                       l2340 0120                       l2332 00F5  
                     l2324 00D9                       l2316 00AE                       l2308 0087  
                     l1606 0ACE                       l2182 0BFB                       l2190 0009  
                     l1710 0D09                       l1702 0A94                       l2094 0771  
                     l2078 0739                       l2158 0FF6                       l2270 0C64  
                     l1622 0CEB                       l1614 0CBE                       l2174 0AE5  
                     l2166 0ADF                       l2262 0E87                       l2254 0E69  
                     l2246 0DEE                       l2350 014C                       l2342 0125  
                     l2334 0104                       l2326 00DE                       l2318 00B7  
                     l2184 0C01                       l2176 0BDE                       l2192 001A  
                     l1720 0D1D                       l1712 0D0E                       l1800 0225  
                     l1640 0B37                       l1632 0B1B                       l2096 078A  
                     l2088 075A                       l2280 0E90                       l2272 0C7A  
                     l2264 0C3C                       l1624 0CEC                       l1616 0CC2  
                     l1608 0C9E                       l2168 0AE2                       l2256 0E79  
                     l2248 0E2D                       l2360 0177                       l2352 0152  
                     l2344 0134                       l2336 0109                       l2328 00E7  
                     l2186 0A74                       l2178 0BE4                       l2194 001F  
                     l1730 0D33                       l1722 0D1F                       l1714 0D10  
                     l1706 0D04                       l1810 023B                       l1802 0226  
                     l1642 0B3C                       l1634 0B1D                       l2098 0790  
                     l2290 0F32                       l2282 0EE6                       l2274 0C8E  
                     l2266 0C40                       l1626 0CF5                       l1618 0CCB  
                     l1650 0BAD                       l2258 0E7D                       l2370 01A7  
                     l2362 0183                       l2354 015A                       l2346 013C  
                     l2338 0112                       l2196 0025                       l2188 0004  
                     l1660 0B7A                       l1740 0D56                       l1732 0D37  
                     l1724 0D25                       l1716 0D14                       l1708 0D05  
                     l1900 0347                       l1820 024C                       l1812 023C  
                     l1804 0228                       l1636 0B24                       l2292 0F36  
                     l2284 0EFC                       l2276 0C93                       l2268 0C56  
                     l1628 0CFB                       l1652 0BDA                       l2380 01D9  
                     l2372 01B3                       l2364 018B                       l2356 0162  
                     l2348 0144                       l2198 002C                       l1670 0B95  
                     l1662 0B7D                       l1734 0D48                       l1726 0D28  
                     l1742 0D5C                       l1718 0D19                       l1910 0370  
                     l1902 034B                       l1830 026A                       l1822 0251  
                     l1814 0242                       l1806 0230                       l1638 0B28  
                     l1750 0D6B                       l2294 0F3B                       l2286 0F0C  
                     l2278 0C98                       l1654 0BDB                       l1646 0BA6  
                     l2382 01E8                       l2374 01BB                       l2366 0193  
                     l2358 0168                       l1680 0A9A                       l1672 0B9B  
                     l1664 0B8B                       l1744 0D61                       l1736 0D4E  
                     l1728 0D2F                       l1920 03DE                       l1912 03AE  
                     l1904 034C                       l1840 027E                       l1832 026E  
                     l1824 0259                       l1816 0246                       l1808 0235  
                     l1760 0D97                       l1752 0D78                       l2296 0F40  
                     l2288 0F22                       l1656 0BDC                       l1648 0BAA  
                     l2384 01EC                       l2376 01C3                       l2368 019F  
                     l1690 0A6D                       l1682 0AA0                       l1674 0B9E  
                     l1666 0B8E                       l1658 0B70                       l1746 0D66  
                     l1738 0D4F                       l1930 03F9                       l1922 03E3  
                     l1914 03B4                       l1906 0355                       l1850 0292  
                     l1842 0282                       l1834 0272                       l1826 025A  
                     l1818 0247                       l1762 0D9F                       l2386 01EE  
                     l2378 01CB                       l2298 0055                       l1684 0AA3  
                     l1676 0BA2                       l1668 0B92                       l1692 0A82  
                     l1932 03FE                       l1940 040A                       l1916 03B9  
                     l1908 035A                       l1860 02A6                       l1852 0296  
                     l1844 0286                       l1836 0276                       l1828 025C  
                     l1780 0DC6                       l1772 0DAD                       l1764 0DA1  
                     l1756 0D81                       l1598 0AB1                       l1686 0AAC  
                     l1678 0A97                       l1694 0A83                       l1934 0401  
                     l1926 03EC                       l1918 03C8                       l1942 040E  
                     l1870 02E6                       l1862 02AA                       l1854 029A  
                     l1846 028A                       l1838 027A                       l1790 020E  
                     l1782 0DD6                       l1766 0DA5                       l1774 0DBF  
                     l1758 0D96                       l1688 0A67                       l1696 0A87  
                     l1960 0456                       l1952 0421                       l1944 040F  
                     l1936 0403                       l1928 03F5                       l1880 02FF  
                     l1872 02EF                       l1856 029E                       l1848 028E  
                     l1864 02AE                       l1792 0212                       l1784 0DDB  
                     l1698 0A8B                       l1970 0472                       l1962 045F  
                     l1954 0426                       l1946 0413                       l1938 0408  
                     l1890 031D                       l1874 02F1                       l1882 0303  
                     l1866 02AF                       l1858 02A2                       l1794 0213  
                     l1786 0201                       l1972 0476                       l1964 0464  
                     l1956 0434                       l1948 0419                       l1892 0334  
                     l1884 030F                       l1876 02F5                       l1868 02C6  
                     l1796 0218                       l1788 0208                       l1980 0489  
                     l1974 0478                       l1966 046C                       l1958 0438  
                     l1894 0338                       l1886 0314                       l1878 02F6  
                     l1798 021D                       l1990 04A0                       l1982 0490  
                     l1976 0483                       l1968 0471                       l1896 033C  
                     l1992 04A5                       l1984 0496                       l1978 0487  
                     l1898 0345                       l1994 04AD                       l1986 049A  
                     l1996 04AF                       l1988 049B                       l1998 04B7  
                     STR_1 0806                       STR_2 081C                       STR_3 0816  
                     STR_4 0819                       u2000 030F                       u2001 030E  
                     u2010 0314                       u2011 0313                       u2100 03B9  
                     u2101 03B8                       u2021 0326                       u2110 03DE  
                     u2030 0338                       u2022 032D                       u2111 03DD  
                     u2031 0337                       u2023 0334                       u2200 0420  
                     u2120 03E3                       u2040 033C                       u2201 041F  
                     u2121 03E2                       u2041 033B                       u2210 0426  
                     u2050 034B                       u2211 0425                       u2051 034A  
                     u2220 0438                       u2140 03F9                       u2300 049A  
                     u1500 0CC2                       u2221 0437                       u2141 03F8  
                     u2301 0499                       u1501 0CC1                       u2230 0447  
                     u2150 03FE                       u2070 0370                       u2310 04A0  
                     u3007 0AA7                       u2151 03FD                       u2135 03EE  
                     u2071 036F                       u2311 049F                       u1600 0A6D  
                     u1440 0AB5                       u2240 0456                       u2160 0408  
                     u2320 04A5                       u1520 0CDD                       u1601 0A6C  
                     u1441 0AB4                       u2241 0455                       u2161 0407  
                     u2081 0387                       u2073 036C                       u2065 034E  
                     u2401 0586                       u2321 04A4                       u1521 0CDC  
                     u1610 0A73                       u1450 0AC0                       u2250 045F  
                     u2170 040E                       u2090 039B                       u2082 0388  
                     u2402 058D                       u2330 04C6                       u1611 0A72  
                     u1451 0ABF                       u2251 045E                       u2235 0442  
                     u2171 040D                       u2091 039C                       u2083 038D  
                     u2411 05A2                       u2403 0594                       u2331 04C5  
                     u1515 0CC4                       u1460 0AC7                       u1700 0D48  
                     u1620 0A87                       u2260 0464                       u2180 0413  
                     u2092 03A1                       u2084 038E                       u2412 05A9  
                     u2340 04CC                       u1540 0CFB                       u1461 0AC6  
                     u1701 0D47                       u1621 0A86                       u2261 0463  
                     u2181 0412                       u2093 03A2                       u2085 0393  
                     u2501 06CB                       u2413 05B0                       u2341 04CB  
                     u1541 0CFA                       u1525 0CD9                       u1470 0ACE  
                     u1630 0A94                       u2270 0471                       u2190 0419  
                     u2086 0394                       u1550 0B28                       u2510 06E7  
                     u2502 06D2                       u2350 04D1                       u1471 0ACD  
                     u1631 0A93                       u2271 0470                       u2191 0418  
                     u1551 0B27                       u2503 06D9                       u2431 05D8  
                     u2351 04D0                       u1535 0CED                       u1720 0D5C  
                     u1640 0D09                       u2280 0476                       u2600 0759  
                     u2432 05DF                       u2360 04E8                       u1800 0DC5  
                     u1480 0CAE                       u1721 0D5B                       u1705 0D44  
                     u1641 0D08                       u2281 0475                       u2601 0758  
                     u2521 06F3                       u2441 0605                       u2433 05E6  
                     u2425 05B2                       u2361 04E7                       u1801 0DC4  
                     u1481 0CAD                       u1730 0D61                       u1650 0D14  
                     u2290 0487                       u1570 0B3C                       u2610 075F  
                     u2522 06FA                       u2442 060C                       u2370 04ED  
                     u1731 0D60                       u1715 0D50                       u1651 0D13  
                     u2291 0486                       u1571 0B3B                       u2611 075E  
                     u2523 0701                       u2515 06E2                       u2443 0613  
                     u2371 04EC                       u1660 0D25                       u1900 0251  
                     u2620 0771                       u1820 0DD6                       u1740 0D78  
                     u1580 0BBD                       u1661 0D24                       u1901 0250  
                     u1565 0B2F                       u2621 0770                       u2461 063B  
                     u2381 053E                       u1821 0DD5                       u1741 0D77  
                     u1910 026A                       u2630 0780                       u2550 0725  
                     u2462 0642                       u2382 0545                       u1830 0DDB  
                     u1750 0D8F                       u2710 0F91                       u1911 0269  
                     u2551 0724                       u2535 0703                       u2471 0668  
                     u2463 0649                       u2455 0615                       u2391 055A  
                     u2383 054C                       u1831 0DDA                       u1815 0DC8  
                     u2711 0F90                       u1495 0CB3                       u1680 0D37  
                     u1920 026E                       u1840 0212                       u2640 079D  
                     u2472 066F                       u2392 0561                       u1760 0DA5  
                     u2800 0FF6                       u1681 0D36                       u1921 026D  
                     u1841 0211                       u2641 079C                       u2545 071A  
                     u2481 0695                       u2473 0676                       u2393 0568  
                     u1761 0DA4                       u2801 0FF5                       u2705 0F83  
                     u1585 0BB8                       u2810 0009                       u1930 02C6  
                     u1850 0218                       u2650 07B7                       u2570 0739  
                     u2490 06BF                       u2482 069C                       u1770 0DAC  
                     u2730 0FB3                       u2811 0008                       u1595 0B80  
                     u1675 0D29                       u1931 02C5                       u1851 0217  
                     u2651 07B6                       u2635 077B                       u2571 0738  
                     u2483 06A3                       u1771 0DAB                       u1755 0D8A  
                     u2731 0FB2                       u1940 02D1                       u1860 021D  
                     u2660 07D5                       u2580 073E                       u1941 02CF  
                     u1861 021C                       u2661 07D4                       u2645 0799  
                     u2581 073D                       u2565 0728                       u2725 0FA5  
                     u2830 0032                       u1950 02D2                       u1870 023B  
                     u2590 0752                       u1790 0DBE                       u2750 0FC3  
                     u2670 0F4C                       u2831 0031                       u1695 0D38  
                     u1935 02C2                       u1871 023A                       u2655 07B3  
                     u2591 0751                       u2495 06BA                       u1791 0DBD  
                     u2751 0FC2                       u2671 0F4B                       u1960 02E6  
                     u1880 0246                       u2760 0FC9                       u2680 0F50  
                     u2825 0011                       u1961 02E5                       u1881 0245  
                     u1785 0DAE                       u2761 0FC8                       u2745 0FB8  
                     u2681 0F4F                       u2850 0B19                       u1970 02F5  
                     u1890 024C                       u2770 0FCD                       u2690 0F70  
                     u2851 0B18                       u1971 02F4                       u1891 024B  
                     u2771 0FCC                       u2691 0F6F                       u2907 00FD  
                     _PEIE 005E                       u2860 0B62                       u2780 0FE2  
                     u2861 0B61                       u2845 003A                       u2917 012D  
                     u1990 030B                       u2790 0FF2                       u1991 030A  
                     u2791 0FF1                       u2927 0170                       u1985 02F8  
                     u2785 0FDD                       u2937 01E1                       u2947 01F6  
                     u2957 0B90                       u2877 0076                       u2967 0BA0  
                     u2887 00A2                       u2977 0BE8                       u2897 00D2  
                     u2987 0BF7                       u2997 0C05                       _TEMP 0067  
        ?_Lcd_Write_String 0070                       _main 0055                       _temp 0063  
                     btemp 007E                       start 0000         ??_Lcd_Write_String 0075  
          __end_of_Lcd_Cmd 0AB0          ___bmul@multiplier 0073           ?_I2C_Master_Init 0020  
         ?_I2C_Master_Read 0070           ?_I2C_Master_Wait 0070           ?_I2C_Master_Stop 0070  
            ___fltol@sign1 0057            __end_of___fladd 0489                      ?_main 0070  
          __end_of___awdiv 0D6B            __end_of___flmul 07EA            __end_of___fltol 0DE7  
          __end_of___lldiv 0D04            ___awdiv@divisor 0070            ___awdiv@counter 0075  
                    _PORTA 0005                      _PORTB 0006                      _PORTC 0007  
                    _PORTD 0008    __size_of_Lcd_Set_Cursor 0052                      _TRISD 0088  
                    _SSPIE 0463                      _TRISE 0089                      _SSPIF 0063  
          __end_of_decimal 0C9E                      _temp1 00A0                      _setup 0AD2  
                    pclath 000A                      status 0003                      wtemp0 007E  
          __end_of_voltaje 0E8D           __end_of_Lcd_Init 0C3B           __end_of_Lcd_Port 0AD2  
          __initialization 07EA               __end_of_main 0201                     ??_main 0060  
       __size_of_Lcd_Clear 000D             Temperatura@VAL 005F          ?_I2C_Master_Start 0070  
           Temperatura@var 005E          ?_I2C_Master_Write 0070         ??_I2C_Master_Start 0070  
       ??_I2C_Master_Write 0072           ___awdiv@dividend 0072                     ?_setup 0070  
                   _ANSELH 0189                  ??_Lcd_Cmd 0071    __size_of_Lcd_Write_Char 0037  
                   _SSPADD 0093                     _TRISC3 043B                     _TRISC4 043C  
                   _SSPCON 0014                     _SSPBUF 0013           __end_of___xxtofl 1000  
                   ___bmul 0A81                  ??___fladd 0042                  ??___awdiv 0074  
                ??___flmul 0028                  ??___fltol 0052                  ??___lldiv 0078  
            ??_Temperatura 0059                  ??_decimal 0079           ___awdiv@quotient 0077  
       __size_of__Umul8_16 0027                  ??_voltaje 0059            Lcd_Set_Cursor@a 0077  
          Lcd_Set_Cursor@b 0074            Lcd_Set_Cursor@y 0079            Lcd_Set_Cursor@z 0078  
             ___xxtofl@arg 007A               ___xxtofl@exp 0079               ___xxtofl@val 0070  
  __end_of__initialization 07FC          __end_of_Lcd_Clear 0A81                 ___fltol@f1 004E  
      ___bmul@multiplicand 0070             __pcstackCOMMON 0070              __end_of_setup 0AF5  
           _Lcd_Set_Cursor 0003        __end_of_Temperatura 0F46                  ?_Lcd_Init 0070  
                ?_Lcd_Port 0070                    ??_setup 007E                 __pbssBANK0 0063  
               __pbssBANK1 00A0          __end_of__Umul8_16 0B41                 __pmaintext 0055  
                  ?___bmul 0070  __size_of_Lcd_Write_String 0025     __end_of_Lcd_Set_Cursor 0055  
                ?___xxtofl 0070                 ??_Lcd_Init 0074                 ??_Lcd_Port 0070  
                  _SSPCON2 0091                    _SSPSTAT 0094                 __stringtab 0800  
           _Lcd_Write_Char 0B6F                    _Lcd_Cmd 0A96                 decimal@VAL 007D  
          __size_of___bmul 0015                    ___fladd 0201                    ___awdiv 0D04  
               decimal@var 007C                    ___flmul 0489                    ___fltol 0D6B  
                  ___lldiv 0C9E                    _decimal 0C3B                _Temperatura 0E8D  
          ?_Lcd_Set_Cursor 0074                    __ptext1 0DE7                    __ptext2 0AD2  
                  __ptext3 0BA6                    __ptext4 0C9E                    __ptext5 0C3B  
                  __ptext6 0E8D                    __ptext7 0F46                    __ptext8 0D6B  
                  __ptext9 0489                 ??___xxtofl 0074   __size_of_I2C_Master_Init 0038  
 __size_of_I2C_Master_Read 002E                    _sensor1 0066                    _sensor2 0065  
 __size_of_I2C_Master_Wait 000D   __size_of_I2C_Master_Stop 0009                    _voltaje 0DE7  
   __end_of_Lcd_Write_Char 0BA6       end_of_initialization 07FC  __size_of_I2C_Master_Start 0009  
__size_of_I2C_Master_Write 000A            ___lldiv@divisor 0070            ___lldiv@counter 007D  
         I2C_Master_Init@c 0020           I2C_Master_Read@a 0070                  Lcd_Port@a 0070  
                _PORTDbits 0008                ___fladd@grs 004D              ___xxtofl@sign 0078  
                _TRISCbits 0087            ?_Lcd_Write_Char 0070          Lcd_Write_String@a 0077  
        Lcd_Write_String@i 0075                ___flmul@grs 002E                  _Lcd_Clear 0A74  
           __end_of___bmul 0A96           _Lcd_Write_String 0AF5        start_initialization 07EA  
        __size_of_Lcd_Init 005D          __size_of_Lcd_Port 0022          ??_I2C_Master_Init 0024  
        ??_I2C_Master_Read 0072          ??_I2C_Master_Wait 0070          ??_I2C_Master_Stop 0070  
               ?_Lcd_Clear 0070                   ??___bmul 0071                  __Umul8_16 0B1A  
          Lcd_Write_Char@a 0074            Lcd_Write_Char@y 0073                  ___fladd@a 003E  
                ___fladd@b 003A                  ___flmul@a 0024                  ___flmul@b 0020  
                ___latbits 0002              __pcstackBANK0 0020          __size_of___xxtofl 00BA  
                 ?_Lcd_Cmd 0070           _I2C_Master_Start 0A4B           _I2C_Master_Write 0A5D  
         ??_Lcd_Set_Cursor 0075                   ?___fladd 003A                   ?___awdiv 0070  
                 ?___flmul 0020                   ?___fltol 004E                   ?___lldiv 0070  
               ?__Umul8_16 0070               ?_Temperatura 0070                   ?_decimal 0070  
                __pstrings 0800                   ?_voltaje 0070             __size_of_setup 0023  
                 Lcd_Cmd@a 0073                ??_Lcd_Clear 0074                __stringbase 0805  
         ??_Lcd_Write_Char 0071                   _Lcd_Init 0BDE                   _Lcd_Port 0AB0  
      I2C_Master_Read@temp 0074   __end_of_Lcd_Write_String 0B1A           __size_of_Lcd_Cmd 001A  
              ??__Umul8_16 0072           __size_of___fladd 0288           __size_of___awdiv 0067  
         __size_of___flmul 0361           __size_of___fltol 007C           __size_of___lldiv 0066  
       __end_of__stringtab 0806           __size_of_decimal 0063            _I2C_Master_Init 0BA6  
          _I2C_Master_Read 0B41                   ___xxtofl 0F46            _I2C_Master_Wait 0A67  
          _I2C_Master_Stop 0A54                   __ptext10 0B1A                   __ptext11 0201  
                 __ptext20 0AB0                   __ptext12 0A81                   __ptext21 0A5D  
                 __ptext13 0D04                   __ptext22 0A54                   __ptext14 0AF5  
                 __ptext23 0A4B                   __ptext15 0B6F                   __ptext24 0B41  
                 __ptext16 0003                   __ptext25 0A67                   __ptext17 0BDE  
                 __ptext18 0A74                   __ptext19 0A96                 voltaje@VAL 005F  
         __size_of_voltaje 00A6                 voltaje@var 005E              __size_of_main 01AC  
     __size_of_Temperatura 00B9   __end_of_I2C_Master_Start 0A54   __end_of_I2C_Master_Write 0A67  
       Lcd_Write_Char@temp 0072           ___lldiv@dividend 0074                  stringcode 0800  
               _OSCCONbits 008F    __end_of_I2C_Master_Init 0BDE    __end_of_I2C_Master_Read 0B6F  
  __end_of_I2C_Master_Wait 0A74    __end_of_I2C_Master_Stop 0A5D         Lcd_Set_Cursor@temp 007A  
   __Umul8_16@multiplicand 0070           ___lldiv@quotient 0079          I2C_Master_Write@d 0070  
                 stringdir 0800                   stringtab 0800                _SSPCON2bits 0091  
            ___fladd@signs 004A               ___fladd@aexp 004B               ___fladd@bexp 004C  
     __Umul8_16@multiplier 0078          __Umul8_16@product 0074  
