

Microchip MPLAB XC8 Assembler V2.31 build 20201012212115 
                                                                                               Tue Aug 31 22:49:14 2021

Microchip MPLAB XC8 C Compiler v2.31 (Free license) build 20201012212115 Og1 
     1                           	processor	16F887
     2                           	pagewidth 120
     3                           	opt	flic
     4                           	psect	cinit,global,class=CODE,merge=1,delta=2
     5                           	psect	bssBANK0,global,class=BANK0,space=1,delta=1,noexec
     6                           	psect	cstackCOMMON,global,class=COMMON,space=1,delta=1,noexec
     7                           	psect	cstackBANK0,global,class=BANK0,space=1,delta=1,noexec
     8                           	psect	maintext,global,class=CODE,split=1,delta=2
     9                           	psect	text1,local,class=CODE,merge=1,delta=2
    10                           	psect	text2,local,class=CODE,merge=1,delta=2
    11                           	psect	text3,local,class=CODE,merge=1,delta=2,group=1
    12                           	psect	text4,local,class=CODE,merge=1,delta=2,group=1
    13                           	psect	text5,local,class=CODE,merge=1,delta=2,group=1
    14                           	psect	config,global,abs,ovrld,class=CONFIG,space=4,delta=2,noexec
    15                           	dabs	1,0x7E,2
    16  0000                     
    17                           ; Version 2.20
    18                           ; Generated 12/02/2020 GMT
    19                           ; 
    20                           ; Copyright © 2020, Microchip Technology Inc. and its subsidiaries ("Microchip")
    21                           ; All rights reserved.
    22                           ; 
    23                           ; This software is developed by Microchip Technology Inc. and its subsidiaries ("Microch
      +                          ip").
    24                           ; 
    25                           ; Redistribution and use in source and binary forms, with or without modification, are
    26                           ; permitted provided that the following conditions are met:
    27                           ; 
    28                           ;     1. Redistributions of source code must retain the above copyright notice, this lis
      +                          t of
    29                           ;        conditions and the following disclaimer.
    30                           ; 
    31                           ;     2. Redistributions in binary form must reproduce the above copyright notice, this 
      +                          list
    32                           ;        of conditions and the following disclaimer in the documentation and/or other
    33                           ;        materials provided with the distribution.
    34                           ; 
    35                           ;     3. Microchip's name may not be used to endorse or promote products derived from th
      +                          is
    36                           ;        software without specific prior written permission.
    37                           ; 
    38                           ; THIS SOFTWARE IS PROVIDED BY MICROCHIP "AS IS" AND ANY EXPRESS OR IMPLIED WARRANTIES,
    39                           ; INCLUDING, BUT NOT LIMITED TO, THE IMPLIED WARRANTIES OF MERCHANTABILITY AND FITNESS F
      +                          OR
    40                           ; PURPOSE ARE DISCLAIMED.  IN NO EVENT SHALL MICROCHIP BE LIABLE FOR ANY DIRECT, INDIREC
      +                          T,
    41                           ; INCIDENTAL, SPECIAL, EXEMPLARY, OR CONSEQUENTIAL DAMAGES (INCLUDING BUT NOT LIMITED TO
    42                           ; PROCUREMENT OF SUBSTITUTE GOODS OR SERVICES; LOSS OF USE, DATA OR PROFITS; OR BUSINESS
    43                           ; INTERRUPTION) HOWSOEVER CAUSED AND ON ANY THEORY OF LIABILITY, WHETHER IN CONTRACT, ST
      +                          RICT
    44                           ; LIABILITY, OR TORT (INCLUDING NEGLIGENCE OR OTHERWISE) ARISING IN ANY WAY OUT OF THE U
      +                          SE OF
    45                           ; THIS SOFTWARE, EVEN IF ADVISED OF THE POSSIBILITY OF SUCH DAMAGE.
    46                           ; 
    47                           ; 
    48                           ; Code-generator required, PIC16F887 Definitions
    49                           ; 
    50                           ; SFR Addresses
    51  0000                     	;# 
    52  0001                     	;# 
    53  0002                     	;# 
    54  0003                     	;# 
    55  0004                     	;# 
    56  0005                     	;# 
    57  0006                     	;# 
    58  0007                     	;# 
    59  0008                     	;# 
    60  0009                     	;# 
    61  000A                     	;# 
    62  000B                     	;# 
    63  000C                     	;# 
    64  000D                     	;# 
    65  000E                     	;# 
    66  000E                     	;# 
    67  000F                     	;# 
    68  0010                     	;# 
    69  0011                     	;# 
    70  0012                     	;# 
    71  0013                     	;# 
    72  0014                     	;# 
    73  0015                     	;# 
    74  0015                     	;# 
    75  0016                     	;# 
    76  0017                     	;# 
    77  0018                     	;# 
    78  0019                     	;# 
    79  001A                     	;# 
    80  001B                     	;# 
    81  001B                     	;# 
    82  001C                     	;# 
    83  001D                     	;# 
    84  001E                     	;# 
    85  001F                     	;# 
    86  0081                     	;# 
    87  0085                     	;# 
    88  0086                     	;# 
    89  0087                     	;# 
    90  0088                     	;# 
    91  0089                     	;# 
    92  008C                     	;# 
    93  008D                     	;# 
    94  008E                     	;# 
    95  008F                     	;# 
    96  0090                     	;# 
    97  0091                     	;# 
    98  0092                     	;# 
    99  0093                     	;# 
   100  0093                     	;# 
   101  0093                     	;# 
   102  0094                     	;# 
   103  0095                     	;# 
   104  0096                     	;# 
   105  0097                     	;# 
   106  0098                     	;# 
   107  0099                     	;# 
   108  009A                     	;# 
   109  009B                     	;# 
   110  009C                     	;# 
   111  009D                     	;# 
   112  009E                     	;# 
   113  009F                     	;# 
   114  0105                     	;# 
   115  0107                     	;# 
   116  0108                     	;# 
   117  0109                     	;# 
   118  010C                     	;# 
   119  010C                     	;# 
   120  010D                     	;# 
   121  010E                     	;# 
   122  010F                     	;# 
   123  0185                     	;# 
   124  0187                     	;# 
   125  0188                     	;# 
   126  0189                     	;# 
   127  018C                     	;# 
   128  018D                     	;# 
   129  0000                     	;# 
   130  0001                     	;# 
   131  0002                     	;# 
   132  0003                     	;# 
   133  0004                     	;# 
   134  0005                     	;# 
   135  0006                     	;# 
   136  0007                     	;# 
   137  0008                     	;# 
   138  0009                     	;# 
   139  000A                     	;# 
   140  000B                     	;# 
   141  000C                     	;# 
   142  000D                     	;# 
   143  000E                     	;# 
   144  000E                     	;# 
   145  000F                     	;# 
   146  0010                     	;# 
   147  0011                     	;# 
   148  0012                     	;# 
   149  0013                     	;# 
   150  0014                     	;# 
   151  0015                     	;# 
   152  0015                     	;# 
   153  0016                     	;# 
   154  0017                     	;# 
   155  0018                     	;# 
   156  0019                     	;# 
   157  001A                     	;# 
   158  001B                     	;# 
   159  001B                     	;# 
   160  001C                     	;# 
   161  001D                     	;# 
   162  001E                     	;# 
   163  001F                     	;# 
   164  0081                     	;# 
   165  0085                     	;# 
   166  0086                     	;# 
   167  0087                     	;# 
   168  0088                     	;# 
   169  0089                     	;# 
   170  008C                     	;# 
   171  008D                     	;# 
   172  008E                     	;# 
   173  008F                     	;# 
   174  0090                     	;# 
   175  0091                     	;# 
   176  0092                     	;# 
   177  0093                     	;# 
   178  0093                     	;# 
   179  0093                     	;# 
   180  0094                     	;# 
   181  0095                     	;# 
   182  0096                     	;# 
   183  0097                     	;# 
   184  0098                     	;# 
   185  0099                     	;# 
   186  009A                     	;# 
   187  009B                     	;# 
   188  009C                     	;# 
   189  009D                     	;# 
   190  009E                     	;# 
   191  009F                     	;# 
   192  0105                     	;# 
   193  0107                     	;# 
   194  0108                     	;# 
   195  0109                     	;# 
   196  010C                     	;# 
   197  010C                     	;# 
   198  010D                     	;# 
   199  010E                     	;# 
   200  010F                     	;# 
   201  0185                     	;# 
   202  0187                     	;# 
   203  0188                     	;# 
   204  0189                     	;# 
   205  018C                     	;# 
   206  018D                     	;# 
   207  000E                     _TMR1	set	14
   208  0007                     _PORTCbits	set	7
   209  0006                     _PORTBbits	set	6
   210  0010                     _T1CONbits	set	16
   211  000B                     _INTCONbits	set	11
   212  0009                     _PORTE	set	9
   213  0008                     _PORTD	set	8
   214  0007                     _PORTC	set	7
   215  0006                     _PORTB	set	6
   216  0005                     _PORTA	set	5
   217  008F                     _OSCCONbits	set	143
   218  0088                     _TRISD	set	136
   219  0086                     _TRISBbits	set	134
   220  0087                     _TRISCbits	set	135
   221  0189                     _ANSELH	set	393
   222  0188                     _ANSEL	set	392
   223                           
   224                           	psect	cinit
   225  07F6                     start_initialization:	
   226                           ; #config settings
   227                           
   228  07F6                     __initialization:
   229                           
   230                           ; Clear objects allocated to BANK0
   231  07F6  1283               	bcf	3,5	;RP0=0, select bank0
   232  07F7  1303               	bcf	3,6	;RP1=0, select bank0
   233  07F8  01CB               	clrf	__pbssBANK0& (0+127)
   234  07F9  01CC               	clrf	(__pbssBANK0+1)& (0+127)
   235  07FA  01CD               	clrf	(__pbssBANK0+2)& (0+127)
   236  07FB  01CE               	clrf	(__pbssBANK0+3)& (0+127)
   237  07FC                     end_of_initialization:	
   238                           ;End of C runtime variable initialization code
   239                           
   240  07FC                     __end_of__initialization:
   241  07FC  0183               	clrf	3
   242  07FD  120A  118A  2C40   	ljmp	_main	;jump to C main() function
   243                           
   244                           	psect	bssBANK0
   245  004B                     __pbssBANK0:
   246  004B                     _TMR1C:
   247  004B                     	ds	2
   248  004D                     _dist:
   249  004D                     	ds	1
   250  004E                     _FLAG:
   251  004E                     	ds	1
   252                           
   253                           	psect	cstackCOMMON
   254  0070                     __pcstackCOMMON:
   255  0070                     ?_setup:
   256  0070                     ??_setup:	
   257                           ; 1 bytes @ 0x0
   258                           
   259  0070                     ?_main:	
   260                           ; 1 bytes @ 0x0
   261                           
   262  0070                     ?___xxtofl:	
   263                           ; 1 bytes @ 0x0
   264                           
   265  0070                     ___xxtofl@val:	
   266                           ; 4 bytes @ 0x0
   267                           
   268                           
   269                           ; 4 bytes @ 0x0
   270  0070                     	ds	4
   271  0074                     ??___xxtofl:
   272                           
   273                           ; 1 bytes @ 0x4
   274  0074                     	ds	4
   275  0078                     ___xxtofl@sign:
   276                           
   277                           ; 1 bytes @ 0x8
   278  0078                     	ds	1
   279  0079                     ___xxtofl@exp:
   280                           
   281                           ; 1 bytes @ 0x9
   282  0079                     	ds	1
   283  007A                     ___xxtofl@arg:
   284                           
   285                           ; 4 bytes @ 0xA
   286  007A                     	ds	4
   287                           
   288                           	psect	cstackBANK0
   289  0020                     __pcstackBANK0:
   290  0020                     ?___fldiv:
   291  0020                     ___fldiv@a:	
   292                           ; 4 bytes @ 0x0
   293                           
   294                           
   295                           ; 4 bytes @ 0x0
   296  0020                     	ds	4
   297  0024                     ___fldiv@b:
   298                           
   299                           ; 4 bytes @ 0x4
   300  0024                     	ds	4
   301  0028                     ??___fldiv:
   302                           
   303                           ; 1 bytes @ 0x8
   304  0028                     	ds	5
   305  002D                     ___fldiv@rem:
   306                           
   307                           ; 4 bytes @ 0xD
   308  002D                     	ds	4
   309  0031                     ___fldiv@sign:
   310                           
   311                           ; 1 bytes @ 0x11
   312  0031                     	ds	1
   313  0032                     ___fldiv@new_exp:
   314                           
   315                           ; 2 bytes @ 0x12
   316  0032                     	ds	2
   317  0034                     ___fldiv@grs:
   318                           
   319                           ; 4 bytes @ 0x14
   320  0034                     	ds	4
   321  0038                     ___fldiv@bexp:
   322                           
   323                           ; 1 bytes @ 0x18
   324  0038                     	ds	1
   325  0039                     ___fldiv@aexp:
   326                           
   327                           ; 1 bytes @ 0x19
   328  0039                     	ds	1
   329  003A                     ?___fltol:
   330  003A                     ___fltol@f1:	
   331                           ; 4 bytes @ 0x1A
   332                           
   333                           
   334                           ; 4 bytes @ 0x1A
   335  003A                     	ds	4
   336  003E                     ??___fltol:
   337                           
   338                           ; 1 bytes @ 0x1E
   339  003E                     	ds	5
   340  0043                     ___fltol@sign1:
   341                           
   342                           ; 1 bytes @ 0x23
   343  0043                     	ds	1
   344  0044                     ___fltol@exp1:
   345                           
   346                           ; 1 bytes @ 0x24
   347  0044                     	ds	1
   348  0045                     ?_C_distancia:
   349                           
   350                           ; 2 bytes @ 0x25
   351  0045                     	ds	2
   352  0047                     ??_C_distancia:
   353                           
   354                           ; 1 bytes @ 0x27
   355  0047                     	ds	1
   356  0048                     ??_main:
   357                           
   358                           ; 1 bytes @ 0x28
   359  0048                     	ds	3
   360                           
   361                           	psect	maintext
   362  0440                     __pmaintext:	
   363 ;;
   364 ;;Main: autosize = 0, tempsize = 3, incstack = 0, save=0
   365 ;;
   366 ;; *************** function _main *****************
   367 ;; Defined at:
   368 ;;		line 103 in file "Ultrasonico.c"
   369 ;; Parameters:    Size  Location     Type
   370 ;;		None
   371 ;; Auto vars:     Size  Location     Type
   372 ;;		None
   373 ;; Return value:  Size  Location     Type
   374 ;;                  1    wreg      void 
   375 ;; Registers used:
   376 ;;		wreg, status,2, status,0, btemp+1, pclath, cstack
   377 ;; Tracked objects:
   378 ;;		On entry : B00/0
   379 ;;		On exit  : 0/0
   380 ;;		Unchanged: 0/0
   381 ;; Data sizes:     COMMON   BANK0   BANK1   BANK3   BANK2
   382 ;;      Params:         0       0       0       0       0
   383 ;;      Locals:         0       0       0       0       0
   384 ;;      Temps:          0       3       0       0       0
   385 ;;      Totals:         0       3       0       0       0
   386 ;;Total ram usage:        3 bytes
   387 ;; Hardware stack levels required when called:    2
   388 ;; This function calls:
   389 ;;		_C_distancia
   390 ;;		_setup
   391 ;; This function is called by:
   392 ;;		Startup code after reset
   393 ;; This function uses a non-reentrant model
   394 ;;
   395                           
   396                           
   397                           ;psect for function _main
   398  0440                     _main:
   399  0440                     l1198:	
   400                           ;incstack = 0
   401                           ; Regs used in _main: [wreg+status,2+status,0+btemp+1+pclath+cstack]
   402                           
   403                           
   404                           ;Ultrasonico.c: 104:     setup();
   405  0440  120A  118A  241B  120A  118A  	fcall	_setup
   406  0445                     l1200:
   407                           
   408                           ;Ultrasonico.c: 106:         _delay((unsigned long)((200)*(8000000/4000.0)));
   409  0445  3003               	movlw	3
   410  0446  1283               	bcf	3,5	;RP0=0, select bank0
   411  0447  1303               	bcf	3,6	;RP1=0, select bank0
   412  0448  00CA               	movwf	??_main+2
   413  0449  3008               	movlw	8
   414  044A  00C9               	movwf	??_main+1
   415  044B  3076               	movlw	118
   416  044C  00C8               	movwf	??_main
   417  044D                     u1157:
   418  044D  0BC8               	decfsz	??_main,f
   419  044E  2C4D               	goto	u1157
   420  044F  0BC9               	decfsz	??_main+1,f
   421  0450  2C4D               	goto	u1157
   422  0451  0BCA               	decfsz	??_main+2,f
   423  0452  2C4D               	goto	u1157
   424  0453  0000               	nop
   425  0454                     l1202:
   426                           
   427                           ;Ultrasonico.c: 107:         C_distancia(dist);
   428  0454  1283               	bcf	3,5	;RP0=0, select bank0
   429  0455  1303               	bcf	3,6	;RP1=0, select bank0
   430  0456  084D               	movf	_dist,w
   431  0457  00C8               	movwf	??_main
   432  0458  01C9               	clrf	??_main+1
   433  0459  0848               	movf	??_main,w
   434  045A  00C5               	movwf	?_C_distancia
   435  045B  0849               	movf	??_main+1,w
   436  045C  00C6               	movwf	?_C_distancia+1
   437  045D  120A  118A  2490  120A  118A  	fcall	_C_distancia
   438  0462                     l1204:
   439                           
   440                           ;Ultrasonico.c: 108:         PORTD = dist;
   441  0462  1283               	bcf	3,5	;RP0=0, select bank0
   442  0463  1303               	bcf	3,6	;RP1=0, select bank0
   443  0464  084D               	movf	_dist,w
   444  0465  0088               	movwf	8	;volatile
   445  0466                     l1206:
   446                           
   447                           ;Ultrasonico.c: 110:         if(dist <= 4){
   448  0466  3005               	movlw	5
   449  0467  024D               	subwf	_dist,w
   450  0468  1803               	skipnc
   451  0469  2C6B               	goto	u1131
   452  046A  2C6C               	goto	u1130
   453  046B                     u1131:
   454  046B  2C78               	goto	l51
   455  046C                     u1130:
   456  046C                     l1208:
   457                           
   458                           ;Ultrasonico.c: 111:             PORTBbits.RB1 = 1;
   459  046C  1486               	bsf	6,1	;volatile
   460                           
   461                           ;Ultrasonico.c: 112:             PORTBbits.RB2 = 0;
   462  046D  1106               	bcf	6,2	;volatile
   463  046E                     l1210:
   464                           
   465                           ;Ultrasonico.c: 113:             _delay((unsigned long)((1)*(8000000/4000.0)));
   466  046E  3003               	movlw	3
   467  046F  1283               	bcf	3,5	;RP0=0, select bank0
   468  0470  1303               	bcf	3,6	;RP1=0, select bank0
   469  0471  00C9               	movwf	??_main+1
   470  0472  3097               	movlw	151
   471  0473  00C8               	movwf	??_main
   472  0474                     u1167:
   473  0474  0BC8               	decfsz	??_main,f
   474  0475  2C74               	goto	u1167
   475  0476  0BC9               	decfsz	??_main+1,f
   476  0477  2C74               	goto	u1167
   477  0478                     l51:	
   478                           ;Ultrasonico.c: 114:         }
   479                           
   480                           
   481                           ;Ultrasonico.c: 115:         if(dist >= 5){
   482  0478  3005               	movlw	5
   483  0479  1283               	bcf	3,5	;RP0=0, select bank0
   484  047A  1303               	bcf	3,6	;RP1=0, select bank0
   485  047B  024D               	subwf	_dist,w
   486  047C  1C03               	skipc
   487  047D  2C7F               	goto	u1141
   488  047E  2C80               	goto	u1140
   489  047F                     u1141:
   490  047F  2C45               	goto	l1200
   491  0480                     u1140:
   492  0480                     l1212:
   493                           
   494                           ;Ultrasonico.c: 116:             PORTBbits.RB1 = 0;
   495  0480  1086               	bcf	6,1	;volatile
   496                           
   497                           ;Ultrasonico.c: 117:             PORTBbits.RB2 = 1;
   498  0481  1506               	bsf	6,2	;volatile
   499  0482                     l1214:
   500                           
   501                           ;Ultrasonico.c: 118:             _delay((unsigned long)((1)*(8000000/4000.0)));
   502  0482  3003               	movlw	3
   503  0483  1283               	bcf	3,5	;RP0=0, select bank0
   504  0484  1303               	bcf	3,6	;RP1=0, select bank0
   505  0485  00C9               	movwf	??_main+1
   506  0486  3097               	movlw	151
   507  0487  00C8               	movwf	??_main
   508  0488                     u1177:
   509  0488  0BC8               	decfsz	??_main,f
   510  0489  2C88               	goto	u1177
   511  048A  0BC9               	decfsz	??_main+1,f
   512  048B  2C88               	goto	u1177
   513  048C  2C45               	goto	l1200
   514  048D  120A  118A  2800   	ljmp	start
   515  0490                     __end_of_main:
   516                           
   517                           	psect	text1
   518  041B                     __ptext1:	
   519 ;; *************** function _setup *****************
   520 ;; Defined at:
   521 ;;		line 65 in file "Ultrasonico.c"
   522 ;; Parameters:    Size  Location     Type
   523 ;;		None
   524 ;; Auto vars:     Size  Location     Type
   525 ;;		None
   526 ;; Return value:  Size  Location     Type
   527 ;;                  1    wreg      void 
   528 ;; Registers used:
   529 ;;		wreg, status,2, status,0
   530 ;; Tracked objects:
   531 ;;		On entry : 0/0
   532 ;;		On exit  : 0/0
   533 ;;		Unchanged: 0/0
   534 ;; Data sizes:     COMMON   BANK0   BANK1   BANK3   BANK2
   535 ;;      Params:         0       0       0       0       0
   536 ;;      Locals:         0       0       0       0       0
   537 ;;      Temps:          0       0       0       0       0
   538 ;;      Totals:         0       0       0       0       0
   539 ;;Total ram usage:        0 bytes
   540 ;; Hardware stack levels used:    1
   541 ;; This function calls:
   542 ;;		Nothing
   543 ;; This function is called by:
   544 ;;		_main
   545 ;; This function uses a non-reentrant model
   546 ;;
   547                           
   548                           
   549                           ;psect for function _setup
   550  041B                     _setup:
   551  041B                     l1158:	
   552                           ;incstack = 0
   553                           ; Regs used in _setup: [wreg+status,2+status,0]
   554                           
   555                           
   556                           ;Ultrasonico.c: 67:     ANSEL = 0X00;
   557  041B  1683               	bsf	3,5	;RP0=1, select bank3
   558  041C  1703               	bsf	3,6	;RP1=1, select bank3
   559  041D  0188               	clrf	8	;volatile
   560                           
   561                           ;Ultrasonico.c: 68:     ANSELH = 0x00;
   562  041E  0189               	clrf	9	;volatile
   563  041F                     l1160:
   564                           
   565                           ;Ultrasonico.c: 71:     TRISCbits.TRISC2 = 0;
   566  041F  1683               	bsf	3,5	;RP0=1, select bank1
   567  0420  1303               	bcf	3,6	;RP1=0, select bank1
   568  0421  1107               	bcf	7,2	;volatile
   569  0422                     l1162:
   570                           
   571                           ;Ultrasonico.c: 72:     TRISCbits.TRISC3 = 1;
   572  0422  1587               	bsf	7,3	;volatile
   573  0423                     l1164:
   574                           
   575                           ;Ultrasonico.c: 73:     TRISBbits.TRISB1 = 0;
   576  0423  1086               	bcf	6,1	;volatile
   577  0424                     l1166:
   578                           
   579                           ;Ultrasonico.c: 74:     TRISBbits.TRISB2 = 0;
   580  0424  1106               	bcf	6,2	;volatile
   581                           
   582                           ;Ultrasonico.c: 75:     TRISD = 0X00;
   583  0425  0188               	clrf	8	;volatile
   584                           
   585                           ;Ultrasonico.c: 77:     PORTA = 0X00;
   586  0426  1283               	bcf	3,5	;RP0=0, select bank0
   587  0427  1303               	bcf	3,6	;RP1=0, select bank0
   588  0428  0185               	clrf	5	;volatile
   589                           
   590                           ;Ultrasonico.c: 78:     PORTB = 0X00;
   591  0429  0186               	clrf	6	;volatile
   592                           
   593                           ;Ultrasonico.c: 79:     PORTC = 0X00;
   594  042A  0187               	clrf	7	;volatile
   595                           
   596                           ;Ultrasonico.c: 80:     PORTD = 0X00;
   597  042B  0188               	clrf	8	;volatile
   598                           
   599                           ;Ultrasonico.c: 81:     PORTE = 0X00;
   600  042C  0189               	clrf	9	;volatile
   601  042D                     l1168:
   602                           
   603                           ;Ultrasonico.c: 84:     OSCCONbits.SCS = 1;
   604  042D  1683               	bsf	3,5	;RP0=1, select bank1
   605  042E  1303               	bcf	3,6	;RP1=0, select bank1
   606  042F  140F               	bsf	15,0	;volatile
   607  0430                     l1170:
   608                           
   609                           ;Ultrasonico.c: 85:     OSCCONbits.IRCF2 = 1;
   610  0430  170F               	bsf	15,6	;volatile
   611  0431                     l1172:
   612                           
   613                           ;Ultrasonico.c: 86:     OSCCONbits.IRCF1 = 1;
   614  0431  168F               	bsf	15,5	;volatile
   615  0432                     l1174:
   616                           
   617                           ;Ultrasonico.c: 87:     OSCCONbits.IRCF0 = 1;
   618  0432  160F               	bsf	15,4	;volatile
   619  0433                     l1176:
   620                           
   621                           ;Ultrasonico.c: 90:     INTCONbits.GIE = 1;
   622  0433  178B               	bsf	11,7	;volatile
   623  0434                     l1178:
   624                           
   625                           ;Ultrasonico.c: 91:     INTCONbits.PEIE = 1;
   626  0434  170B               	bsf	11,6	;volatile
   627                           
   628                           ;Ultrasonico.c: 94:     TMR1 = 0X00;
   629  0435  1283               	bcf	3,5	;RP0=0, select bank0
   630  0436  1303               	bcf	3,6	;RP1=0, select bank0
   631  0437  018E               	clrf	14	;volatile
   632  0438  018F               	clrf	15	;volatile
   633  0439                     l1180:
   634                           
   635                           ;Ultrasonico.c: 95:     T1CONbits.T1CKPS = 0B01;
   636  0439  0810               	movf	16,w	;volatile
   637  043A  39CF               	andlw	-49
   638  043B  3810               	iorlw	16
   639  043C  0090               	movwf	16	;volatile
   640  043D                     l1182:
   641                           
   642                           ;Ultrasonico.c: 96:     T1CONbits.TMR1GE = 0;
   643  043D  1310               	bcf	16,6	;volatile
   644  043E                     l1184:
   645                           
   646                           ;Ultrasonico.c: 97:     T1CONbits.TMR1CS = 0;
   647  043E  1090               	bcf	16,1	;volatile
   648  043F                     l45:
   649  043F  0008               	return
   650  0440                     __end_of_setup:
   651                           
   652                           	psect	text2
   653  0490                     __ptext2:	
   654 ;; *************** function _C_distancia *****************
   655 ;; Defined at:
   656 ;;		line 127 in file "Ultrasonico.c"
   657 ;; Parameters:    Size  Location     Type
   658 ;;		None
   659 ;; Auto vars:     Size  Location     Type
   660 ;;		None
   661 ;; Return value:  Size  Location     Type
   662 ;;                  2   37[BANK0 ] int 
   663 ;; Registers used:
   664 ;;		wreg, status,2, status,0, btemp+1, pclath, cstack
   665 ;; Tracked objects:
   666 ;;		On entry : 0/0
   667 ;;		On exit  : 0/0
   668 ;;		Unchanged: 0/0
   669 ;; Data sizes:     COMMON   BANK0   BANK1   BANK3   BANK2
   670 ;;      Params:         0       2       0       0       0
   671 ;;      Locals:         0       0       0       0       0
   672 ;;      Temps:          0       1       0       0       0
   673 ;;      Totals:         0       3       0       0       0
   674 ;;Total ram usage:        3 bytes
   675 ;; Hardware stack levels used:    1
   676 ;; Hardware stack levels required when called:    1
   677 ;; This function calls:
   678 ;;		___fldiv
   679 ;;		___fltol
   680 ;;		___xxtofl
   681 ;; This function is called by:
   682 ;;		_main
   683 ;; This function uses a non-reentrant model
   684 ;;
   685                           
   686                           
   687                           ;psect for function _C_distancia
   688  0490                     _C_distancia:
   689  0490                     l1186:	
   690                           ;incstack = 0
   691                           ; Regs used in _C_distancia: [wreg+status,2+status,0+btemp+1+pclath+cstack]
   692                           
   693                           
   694                           ;Ultrasonico.c: 128:     dist = 0x00;
   695  0490  1283               	bcf	3,5	;RP0=0, select bank0
   696  0491  1303               	bcf	3,6	;RP1=0, select bank0
   697  0492  01CD               	clrf	_dist
   698                           
   699                           ;Ultrasonico.c: 129:     TMR1 = 0X00;
   700  0493  018E               	clrf	14	;volatile
   701  0494  018F               	clrf	15	;volatile
   702  0495                     l1188:
   703                           
   704                           ;Ultrasonico.c: 130:     PORTCbits.RC2 = 1;
   705  0495  1507               	bsf	7,2	;volatile
   706  0496                     l1190:
   707                           
   708                           ;Ultrasonico.c: 131:     _delay((unsigned long)((10)*(8000000/4000000.0)));
   709  0496  3005               	movlw	5
   710  0497  1283               	bcf	3,5	;RP0=0, select bank0
   711  0498  1303               	bcf	3,6	;RP1=0, select bank0
   712  0499  00C7               	movwf	??_C_distancia
   713  049A                     u1187:
   714  049A  0BC7               	decfsz	??_C_distancia,f
   715  049B  2C9A               	goto	u1187
   716  049C  2C9D               	nop2
   717  049D                     l1192:
   718                           
   719                           ;Ultrasonico.c: 132:     PORTCbits.RC2 = 0;
   720  049D  1283               	bcf	3,5	;RP0=0, select bank0
   721  049E  1303               	bcf	3,6	;RP1=0, select bank0
   722  049F  1107               	bcf	7,2	;volatile
   723  04A0                     l58:	
   724                           ;Ultrasonico.c: 133:     while(PORTCbits.RC3 == 0){};
   725                           
   726  04A0  1D87               	btfss	7,3	;volatile
   727  04A1  2CA3               	goto	u1111
   728  04A2  2CA4               	goto	u1110
   729  04A3                     u1111:
   730  04A3  2CA0               	goto	l58
   731  04A4                     u1110:
   732  04A4                     l60:
   733                           
   734                           ;Ultrasonico.c: 134:     T1CONbits.TMR1ON = 1;
   735  04A4  1410               	bsf	16,0	;volatile
   736  04A5                     l61:	
   737                           ;Ultrasonico.c: 135:     while(PORTCbits.RC3 == 1){};
   738                           
   739  04A5  1987               	btfsc	7,3	;volatile
   740  04A6  2CA8               	goto	u1121
   741  04A7  2CA9               	goto	u1120
   742  04A8                     u1121:
   743  04A8  2CA5               	goto	l61
   744  04A9                     u1120:
   745  04A9                     l63:
   746                           
   747                           ;Ultrasonico.c: 136:     T1CONbits.TMR1ON = 0;
   748  04A9  1010               	bcf	16,0	;volatile
   749  04AA                     l1194:
   750                           
   751                           ;Ultrasonico.c: 137:     dist = TMR1/58.82;
   752  04AA  080E               	movf	14,w	;volatile
   753  04AB  00F0               	movwf	___xxtofl@val
   754  04AC  080F               	movf	15,w	;volatile
   755  04AD  00F1               	movwf	___xxtofl@val+1
   756  04AE  01F2               	clrf	___xxtofl@val+2
   757  04AF  01F3               	clrf	___xxtofl@val+3
   758  04B0  3000               	movlw	0
   759  04B1  120A  118A  255F  120A  118A  	fcall	___xxtofl
   760  04B6  0873               	movf	?___xxtofl+3,w
   761  04B7  1283               	bcf	3,5	;RP0=0, select bank0
   762  04B8  1303               	bcf	3,6	;RP1=0, select bank0
   763  04B9  00A7               	movwf	___fldiv@b+3
   764  04BA  0872               	movf	?___xxtofl+2,w
   765  04BB  00A6               	movwf	___fldiv@b+2
   766  04BC  0871               	movf	?___xxtofl+1,w
   767  04BD  00A5               	movwf	___fldiv@b+1
   768  04BE  0870               	movf	?___xxtofl,w
   769  04BF  00A4               	movwf	___fldiv@b
   770  04C0  3042               	movlw	66
   771  04C1  00A3               	movwf	___fldiv@a+3
   772  04C2  306B               	movlw	107
   773  04C3  00A2               	movwf	___fldiv@a+2
   774  04C4  3047               	movlw	71
   775  04C5  00A1               	movwf	___fldiv@a+1
   776  04C6  30AE               	movlw	174
   777  04C7  00A0               	movwf	___fldiv@a
   778  04C8  120A  118A  2619  120A  118A  	fcall	___fldiv
   779  04CD  1283               	bcf	3,5	;RP0=0, select bank0
   780  04CE  1303               	bcf	3,6	;RP1=0, select bank0
   781  04CF  0823               	movf	?___fldiv+3,w
   782  04D0  00BD               	movwf	___fltol@f1+3
   783  04D1  0822               	movf	?___fldiv+2,w
   784  04D2  00BC               	movwf	___fltol@f1+2
   785  04D3  0821               	movf	?___fldiv+1,w
   786  04D4  00BB               	movwf	___fltol@f1+1
   787  04D5  0820               	movf	?___fldiv,w
   788  04D6  00BA               	movwf	___fltol@f1
   789  04D7  120A  118A  24E3  120A  118A  	fcall	___fltol
   790  04DC  1283               	bcf	3,5	;RP0=0, select bank0
   791  04DD  1303               	bcf	3,6	;RP1=0, select bank0
   792  04DE  083A               	movf	?___fltol,w
   793  04DF  00C7               	movwf	??_C_distancia
   794  04E0  0847               	movf	??_C_distancia,w
   795  04E1  00CD               	movwf	_dist
   796  04E2                     l64:
   797  04E2  0008               	return
   798  04E3                     __end_of_C_distancia:
   799                           
   800                           	psect	text3
   801  055F                     __ptext3:	
   802 ;; *************** function ___xxtofl *****************
   803 ;; Defined at:
   804 ;;		line 10 in file "C:\Program Files\Microchip\xc8\v2.31\pic\sources\c90\common\xxtofl.c"
   805 ;; Parameters:    Size  Location     Type
   806 ;;  sign            1    wreg     unsigned char 
   807 ;;  val             4    0[COMMON] long 
   808 ;; Auto vars:     Size  Location     Type
   809 ;;  sign            1    8[COMMON] unsigned char 
   810 ;;  arg             4   10[COMMON] unsigned long 
   811 ;;  exp             1    9[COMMON] unsigned char 
   812 ;; Return value:  Size  Location     Type
   813 ;;                  4    0[COMMON] unsigned char 
   814 ;; Registers used:
   815 ;;		wreg, status,2, status,0
   816 ;; Tracked objects:
   817 ;;		On entry : 0/0
   818 ;;		On exit  : 0/0
   819 ;;		Unchanged: 0/0
   820 ;; Data sizes:     COMMON   BANK0   BANK1   BANK3   BANK2
   821 ;;      Params:         4       0       0       0       0
   822 ;;      Locals:         6       0       0       0       0
   823 ;;      Temps:          4       0       0       0       0
   824 ;;      Totals:        14       0       0       0       0
   825 ;;Total ram usage:       14 bytes
   826 ;; Hardware stack levels used:    1
   827 ;; This function calls:
   828 ;;		Nothing
   829 ;; This function is called by:
   830 ;;		_C_distancia
   831 ;; This function uses a non-reentrant model
   832 ;;
   833                           
   834                           
   835                           ;psect for function ___xxtofl
   836  055F                     ___xxtofl:
   837                           
   838                           ;incstack = 0
   839                           ; Regs used in ___xxtofl: [wreg+status,2+status,0]
   840                           ;___xxtofl@sign stored from wreg
   841  055F  00F8               	movwf	___xxtofl@sign
   842  0560                     l1114:
   843  0560  0878               	movf	___xxtofl@sign,w
   844  0561  1903               	btfsc	3,2
   845  0562  2D64               	goto	u971
   846  0563  2D65               	goto	u970
   847  0564                     u971:
   848  0564  2D79               	goto	l1120
   849  0565                     u970:
   850  0565                     l1116:
   851  0565  1FF3               	btfss	___xxtofl@val+3,7
   852  0566  2D68               	goto	u981
   853  0567  2D69               	goto	u980
   854  0568                     u981:
   855  0568  2D79               	goto	l1120
   856  0569                     u980:
   857  0569                     l1118:
   858  0569  0970               	comf	___xxtofl@val,w
   859  056A  00FA               	movwf	___xxtofl@arg
   860  056B  0971               	comf	___xxtofl@val+1,w
   861  056C  00FB               	movwf	___xxtofl@arg+1
   862  056D  0972               	comf	___xxtofl@val+2,w
   863  056E  00FC               	movwf	___xxtofl@arg+2
   864  056F  0973               	comf	___xxtofl@val+3,w
   865  0570  00FD               	movwf	___xxtofl@arg+3
   866  0571  0AFA               	incf	___xxtofl@arg,f
   867  0572  1903               	skipnz
   868  0573  0AFB               	incf	___xxtofl@arg+1,f
   869  0574  1903               	skipnz
   870  0575  0AFC               	incf	___xxtofl@arg+2,f
   871  0576  1903               	skipnz
   872  0577  0AFD               	incf	___xxtofl@arg+3,f
   873  0578  2D81               	goto	l583
   874  0579                     l1120:
   875  0579  0873               	movf	___xxtofl@val+3,w
   876  057A  00FD               	movwf	___xxtofl@arg+3
   877  057B  0872               	movf	___xxtofl@val+2,w
   878  057C  00FC               	movwf	___xxtofl@arg+2
   879  057D  0871               	movf	___xxtofl@val+1,w
   880  057E  00FB               	movwf	___xxtofl@arg+1
   881  057F  0870               	movf	___xxtofl@val,w
   882  0580  00FA               	movwf	___xxtofl@arg
   883  0581                     l583:
   884  0581  0873               	movf	___xxtofl@val+3,w
   885  0582  0472               	iorwf	___xxtofl@val+2,w
   886  0583  0471               	iorwf	___xxtofl@val+1,w
   887  0584  0470               	iorwf	___xxtofl@val,w
   888  0585  1D03               	skipz
   889  0586  2D88               	goto	u991
   890  0587  2D89               	goto	u990
   891  0588                     u991:
   892  0588  2D92               	goto	l1126
   893  0589                     u990:
   894  0589                     l1122:
   895  0589  3000               	movlw	0
   896  058A  00F3               	movwf	?___xxtofl+3
   897  058B  3000               	movlw	0
   898  058C  00F2               	movwf	?___xxtofl+2
   899  058D  3000               	movlw	0
   900  058E  00F1               	movwf	?___xxtofl+1
   901  058F  3000               	movlw	0
   902  0590  00F0               	movwf	?___xxtofl
   903  0591  2E18               	goto	l585
   904  0592                     l1126:
   905  0592  3096               	movlw	150
   906  0593  00F4               	movwf	??___xxtofl
   907  0594  0874               	movf	??___xxtofl,w
   908  0595  00F9               	movwf	___xxtofl@exp
   909  0596  2DA4               	goto	l1130
   910  0597                     l1128:
   911  0597  3001               	movlw	1
   912  0598  00F4               	movwf	??___xxtofl
   913  0599  0874               	movf	??___xxtofl,w
   914  059A  07F9               	addwf	___xxtofl@exp,f
   915  059B  3001               	movlw	1
   916  059C                     u1005:
   917  059C  1003               	clrc
   918  059D  0CFD               	rrf	___xxtofl@arg+3,f
   919  059E  0CFC               	rrf	___xxtofl@arg+2,f
   920  059F  0CFB               	rrf	___xxtofl@arg+1,f
   921  05A0  0CFA               	rrf	___xxtofl@arg,f
   922  05A1  3EFF               	addlw	-1
   923  05A2  1D03               	skipz
   924  05A3  2D9C               	goto	u1005
   925  05A4                     l1130:
   926  05A4  30FE               	movlw	254
   927  05A5  057D               	andwf	___xxtofl@arg+3,w
   928  05A6  1D03               	btfss	3,2
   929  05A7  2DA9               	goto	u1011
   930  05A8  2DAA               	goto	u1010
   931  05A9                     u1011:
   932  05A9  2D97               	goto	l1128
   933  05AA                     u1010:
   934  05AA  2DC6               	goto	l589
   935  05AB                     l1132:
   936  05AB  3001               	movlw	1
   937  05AC  00F4               	movwf	??___xxtofl
   938  05AD  0874               	movf	??___xxtofl,w
   939  05AE  07F9               	addwf	___xxtofl@exp,f
   940  05AF                     l1134:
   941  05AF  3001               	movlw	1
   942  05B0  07FA               	addwf	___xxtofl@arg,f
   943  05B1  3000               	movlw	0
   944  05B2  1803               	skipnc
   945  05B3  3001               	movlw	1
   946  05B4  07FB               	addwf	___xxtofl@arg+1,f
   947  05B5  3000               	movlw	0
   948  05B6  1803               	skipnc
   949  05B7  3001               	movlw	1
   950  05B8  07FC               	addwf	___xxtofl@arg+2,f
   951  05B9  3000               	movlw	0
   952  05BA  1803               	skipnc
   953  05BB  3001               	movlw	1
   954  05BC  07FD               	addwf	___xxtofl@arg+3,f
   955  05BD                     l1136:
   956  05BD  3001               	movlw	1
   957  05BE                     u1025:
   958  05BE  1003               	clrc
   959  05BF  0CFD               	rrf	___xxtofl@arg+3,f
   960  05C0  0CFC               	rrf	___xxtofl@arg+2,f
   961  05C1  0CFB               	rrf	___xxtofl@arg+1,f
   962  05C2  0CFA               	rrf	___xxtofl@arg,f
   963  05C3  3EFF               	addlw	-1
   964  05C4  1D03               	skipz
   965  05C5  2DBE               	goto	u1025
   966  05C6                     l589:
   967  05C6  30FF               	movlw	255
   968  05C7  057D               	andwf	___xxtofl@arg+3,w
   969  05C8  1D03               	btfss	3,2
   970  05C9  2DCB               	goto	u1031
   971  05CA  2DCC               	goto	u1030
   972  05CB                     u1031:
   973  05CB  2DAB               	goto	l1132
   974  05CC                     u1030:
   975  05CC  2DD8               	goto	l1140
   976  05CD                     l1138:
   977  05CD  3001               	movlw	1
   978  05CE  02F9               	subwf	___xxtofl@exp,f
   979  05CF  3001               	movlw	1
   980  05D0  00F4               	movwf	??___xxtofl
   981  05D1                     u1045:
   982  05D1  1003               	clrc
   983  05D2  0DFA               	rlf	___xxtofl@arg,f
   984  05D3  0DFB               	rlf	___xxtofl@arg+1,f
   985  05D4  0DFC               	rlf	___xxtofl@arg+2,f
   986  05D5  0DFD               	rlf	___xxtofl@arg+3,f
   987  05D6  0BF4               	decfsz	??___xxtofl,f
   988  05D7  2DD1               	goto	u1045
   989  05D8                     l1140:
   990  05D8  1BFC               	btfsc	___xxtofl@arg+2,7
   991  05D9  2DDB               	goto	u1051
   992  05DA  2DDC               	goto	u1050
   993  05DB                     u1051:
   994  05DB  2DE2               	goto	l596
   995  05DC                     u1050:
   996  05DC                     l1142:
   997  05DC  3002               	movlw	2
   998  05DD  0279               	subwf	___xxtofl@exp,w
   999  05DE  1803               	skipnc
  1000  05DF  2DE1               	goto	u1061
  1001  05E0  2DE2               	goto	u1060
  1002  05E1                     u1061:
  1003  05E1  2DCD               	goto	l1138
  1004  05E2                     u1060:
  1005  05E2                     l596:
  1006  05E2  1879               	btfsc	___xxtofl@exp,0
  1007  05E3  2DE5               	goto	u1071
  1008  05E4  2DE6               	goto	u1070
  1009  05E5                     u1071:
  1010  05E5  2DEE               	goto	l597
  1011  05E6                     u1070:
  1012  05E6                     l1144:
  1013  05E6  30FF               	movlw	255
  1014  05E7  05FA               	andwf	___xxtofl@arg,f
  1015  05E8  30FF               	movlw	255
  1016  05E9  05FB               	andwf	___xxtofl@arg+1,f
  1017  05EA  307F               	movlw	127
  1018  05EB  05FC               	andwf	___xxtofl@arg+2,f
  1019  05EC  30FF               	movlw	255
  1020  05ED  05FD               	andwf	___xxtofl@arg+3,f
  1021  05EE                     l597:
  1022  05EE  1003               	clrc
  1023  05EF  0CF9               	rrf	___xxtofl@exp,f
  1024  05F0                     l1146:
  1025  05F0  0879               	movf	___xxtofl@exp,w
  1026  05F1  00F4               	movwf	??___xxtofl
  1027  05F2  01F5               	clrf	??___xxtofl+1
  1028  05F3  01F6               	clrf	??___xxtofl+2
  1029  05F4  01F7               	clrf	??___xxtofl+3
  1030  05F5  3018               	movlw	24
  1031  05F6                     u1085:
  1032  05F6  1003               	clrc
  1033  05F7  0DF4               	rlf	??___xxtofl,f
  1034  05F8  0DF5               	rlf	??___xxtofl+1,f
  1035  05F9  0DF6               	rlf	??___xxtofl+2,f
  1036  05FA  0DF7               	rlf	??___xxtofl+3,f
  1037  05FB                     u1080:
  1038  05FB  3EFF               	addlw	-1
  1039  05FC  1D03               	skipz
  1040  05FD  2DF6               	goto	u1085
  1041  05FE  0874               	movf	??___xxtofl,w
  1042  05FF  04FA               	iorwf	___xxtofl@arg,f
  1043  0600  0875               	movf	??___xxtofl+1,w
  1044  0601  04FB               	iorwf	___xxtofl@arg+1,f
  1045  0602  0876               	movf	??___xxtofl+2,w
  1046  0603  04FC               	iorwf	___xxtofl@arg+2,f
  1047  0604  0877               	movf	??___xxtofl+3,w
  1048  0605  04FD               	iorwf	___xxtofl@arg+3,f
  1049  0606                     l1148:
  1050  0606  0878               	movf	___xxtofl@sign,w
  1051  0607  1903               	btfsc	3,2
  1052  0608  2E0A               	goto	u1091
  1053  0609  2E0B               	goto	u1090
  1054  060A                     u1091:
  1055  060A  2E10               	goto	l1154
  1056  060B                     u1090:
  1057  060B                     l1150:
  1058  060B  1FF3               	btfss	___xxtofl@val+3,7
  1059  060C  2E0E               	goto	u1101
  1060  060D  2E0F               	goto	u1100
  1061  060E                     u1101:
  1062  060E  2E10               	goto	l1154
  1063  060F                     u1100:
  1064  060F                     l1152:
  1065  060F  17FD               	bsf	___xxtofl@arg+3,7
  1066  0610                     l1154:
  1067  0610  087D               	movf	___xxtofl@arg+3,w
  1068  0611  00F3               	movwf	?___xxtofl+3
  1069  0612  087C               	movf	___xxtofl@arg+2,w
  1070  0613  00F2               	movwf	?___xxtofl+2
  1071  0614  087B               	movf	___xxtofl@arg+1,w
  1072  0615  00F1               	movwf	?___xxtofl+1
  1073  0616  087A               	movf	___xxtofl@arg,w
  1074  0617  00F0               	movwf	?___xxtofl
  1075  0618                     l585:
  1076  0618  0008               	return
  1077  0619                     __end_of___xxtofl:
  1078                           
  1079                           	psect	text4
  1080  04E3                     __ptext4:	
  1081 ;; *************** function ___fltol *****************
  1082 ;; Defined at:
  1083 ;;		line 43 in file "C:\Program Files\Microchip\xc8\v2.31\pic\sources\c90\common\fltol.c"
  1084 ;; Parameters:    Size  Location     Type
  1085 ;;  f1              4   26[BANK0 ] unsigned char 
  1086 ;; Auto vars:     Size  Location     Type
  1087 ;;  exp1            1   36[BANK0 ] unsigned char 
  1088 ;;  sign1           1   35[BANK0 ] unsigned char 
  1089 ;; Return value:  Size  Location     Type
  1090 ;;                  4   26[BANK0 ] long 
  1091 ;; Registers used:
  1092 ;;		wreg, status,2, status,0
  1093 ;; Tracked objects:
  1094 ;;		On entry : 0/0
  1095 ;;		On exit  : 0/0
  1096 ;;		Unchanged: 0/0
  1097 ;; Data sizes:     COMMON   BANK0   BANK1   BANK3   BANK2
  1098 ;;      Params:         0       4       0       0       0
  1099 ;;      Locals:         0       2       0       0       0
  1100 ;;      Temps:          0       5       0       0       0
  1101 ;;      Totals:         0      11       0       0       0
  1102 ;;Total ram usage:       11 bytes
  1103 ;; Hardware stack levels used:    1
  1104 ;; This function calls:
  1105 ;;		Nothing
  1106 ;; This function is called by:
  1107 ;;		_C_distancia
  1108 ;; This function uses a non-reentrant model
  1109 ;;
  1110                           
  1111                           
  1112                           ;psect for function ___fltol
  1113  04E3                     ___fltol:
  1114  04E3                     l936:	
  1115                           ;incstack = 0
  1116                           ; Regs used in ___fltol: [wreg+status,2+status,0]
  1117                           
  1118  04E3  1003               	clrc
  1119  04E4  1283               	bcf	3,5	;RP0=0, select bank0
  1120  04E5  1303               	bcf	3,6	;RP1=0, select bank0
  1121  04E6  0D3C               	rlf	___fltol@f1+2,w
  1122  04E7  0D3D               	rlf	___fltol@f1+3,w
  1123  04E8  00BE               	movwf	??___fltol
  1124  04E9  083E               	movf	??___fltol,w
  1125  04EA  00C4               	movwf	___fltol@exp1
  1126  04EB  0844               	movf	___fltol@exp1,w
  1127  04EC  1D03               	btfss	3,2
  1128  04ED  2CEF               	goto	u581
  1129  04EE  2CF0               	goto	u580
  1130  04EF                     u581:
  1131  04EF  2CF9               	goto	l942
  1132  04F0                     u580:
  1133  04F0                     l938:
  1134  04F0  3000               	movlw	0
  1135  04F1  00BD               	movwf	?___fltol+3
  1136  04F2  3000               	movlw	0
  1137  04F3  00BC               	movwf	?___fltol+2
  1138  04F4  3000               	movlw	0
  1139  04F5  00BB               	movwf	?___fltol+1
  1140  04F6  3000               	movlw	0
  1141  04F7  00BA               	movwf	?___fltol
  1142  04F8  2D5E               	goto	l336
  1143  04F9                     l942:
  1144  04F9  083A               	movf	___fltol@f1,w
  1145  04FA  00BE               	movwf	??___fltol
  1146  04FB  083B               	movf	___fltol@f1+1,w
  1147  04FC  00BF               	movwf	??___fltol+1
  1148  04FD  083C               	movf	___fltol@f1+2,w
  1149  04FE  00C0               	movwf	??___fltol+2
  1150  04FF  083D               	movf	___fltol@f1+3,w
  1151  0500  00C1               	movwf	??___fltol+3
  1152  0501  301F               	movlw	31
  1153  0502                     u595:
  1154  0502  1003               	clrc
  1155  0503  0CC1               	rrf	??___fltol+3,f
  1156  0504  0CC0               	rrf	??___fltol+2,f
  1157  0505  0CBF               	rrf	??___fltol+1,f
  1158  0506  0CBE               	rrf	??___fltol,f
  1159  0507                     u590:
  1160  0507  3EFF               	addlw	-1
  1161  0508  1D03               	skipz
  1162  0509  2D02               	goto	u595
  1163  050A  083E               	movf	??___fltol,w
  1164  050B  00C2               	movwf	??___fltol+4
  1165  050C  0842               	movf	??___fltol+4,w
  1166  050D  00C3               	movwf	___fltol@sign1
  1167  050E                     l944:
  1168  050E  17BC               	bsf	___fltol@f1+2,7
  1169  050F                     l946:
  1170  050F  30FF               	movlw	255
  1171  0510  05BA               	andwf	___fltol@f1,f
  1172  0511  30FF               	movlw	255
  1173  0512  05BB               	andwf	___fltol@f1+1,f
  1174  0513  30FF               	movlw	255
  1175  0514  05BC               	andwf	___fltol@f1+2,f
  1176  0515  3000               	movlw	0
  1177  0516  05BD               	andwf	___fltol@f1+3,f
  1178  0517                     l948:
  1179  0517  3096               	movlw	150
  1180  0518  02C4               	subwf	___fltol@exp1,f
  1181  0519                     l950:
  1182  0519  1FC4               	btfss	___fltol@exp1,7
  1183  051A  2D1C               	goto	u601
  1184  051B  2D1D               	goto	u600
  1185  051C                     u601:
  1186  051C  2D37               	goto	l960
  1187  051D                     u600:
  1188  051D                     l952:
  1189  051D  0844               	movf	___fltol@exp1,w
  1190  051E  3A80               	xorlw	128
  1191  051F  3E97               	addlw	151
  1192  0520  1803               	skipnc
  1193  0521  2D23               	goto	u611
  1194  0522  2D24               	goto	u610
  1195  0523                     u611:
  1196  0523  2D25               	goto	l958
  1197  0524                     u610:
  1198  0524  2CF0               	goto	l938
  1199  0525                     l958:
  1200  0525  3001               	movlw	1
  1201  0526                     u625:
  1202  0526  1003               	clrc
  1203  0527  0CBD               	rrf	___fltol@f1+3,f
  1204  0528  0CBC               	rrf	___fltol@f1+2,f
  1205  0529  0CBB               	rrf	___fltol@f1+1,f
  1206  052A  0CBA               	rrf	___fltol@f1,f
  1207  052B  3EFF               	addlw	-1
  1208  052C  1D03               	skipz
  1209  052D  2D26               	goto	u625
  1210  052E  3001               	movlw	1
  1211  052F  00BE               	movwf	??___fltol
  1212  0530  083E               	movf	??___fltol,w
  1213  0531  07C4               	addwf	___fltol@exp1,f
  1214  0532  1D03               	btfss	3,2
  1215  0533  2D35               	goto	u631
  1216  0534  2D36               	goto	u630
  1217  0535                     u631:
  1218  0535  2D25               	goto	l958
  1219  0536                     u630:
  1220  0536  2D4E               	goto	l968
  1221  0537                     l960:
  1222  0537  3020               	movlw	32
  1223  0538  0244               	subwf	___fltol@exp1,w
  1224  0539  1C03               	skipc
  1225  053A  2D3C               	goto	u641
  1226  053B  2D3D               	goto	u640
  1227  053C                     u641:
  1228  053C  2D49               	goto	l343
  1229  053D                     u640:
  1230  053D  2CF0               	goto	l938
  1231  053E                     l966:
  1232  053E  3001               	movlw	1
  1233  053F  00BE               	movwf	??___fltol
  1234  0540                     u655:
  1235  0540  1003               	clrc
  1236  0541  0DBA               	rlf	___fltol@f1,f
  1237  0542  0DBB               	rlf	___fltol@f1+1,f
  1238  0543  0DBC               	rlf	___fltol@f1+2,f
  1239  0544  0DBD               	rlf	___fltol@f1+3,f
  1240  0545  0BBE               	decfsz	??___fltol,f
  1241  0546  2D40               	goto	u655
  1242  0547  3001               	movlw	1
  1243  0548  02C4               	subwf	___fltol@exp1,f
  1244  0549                     l343:
  1245  0549  0844               	movf	___fltol@exp1,w
  1246  054A  1D03               	btfss	3,2
  1247  054B  2D4D               	goto	u661
  1248  054C  2D4E               	goto	u660
  1249  054D                     u661:
  1250  054D  2D3E               	goto	l966
  1251  054E                     u660:
  1252  054E                     l968:
  1253  054E  0843               	movf	___fltol@sign1,w
  1254  054F  1903               	btfsc	3,2
  1255  0550  2D52               	goto	u671
  1256  0551  2D53               	goto	u670
  1257  0552                     u671:
  1258  0552  2D5E               	goto	l346
  1259  0553                     u670:
  1260  0553                     l970:
  1261  0553  09BA               	comf	___fltol@f1,f
  1262  0554  09BB               	comf	___fltol@f1+1,f
  1263  0555  09BC               	comf	___fltol@f1+2,f
  1264  0556  09BD               	comf	___fltol@f1+3,f
  1265  0557  0ABA               	incf	___fltol@f1,f
  1266  0558  1903               	skipnz
  1267  0559  0ABB               	incf	___fltol@f1+1,f
  1268  055A  1903               	skipnz
  1269  055B  0ABC               	incf	___fltol@f1+2,f
  1270  055C  1903               	skipnz
  1271  055D  0ABD               	incf	___fltol@f1+3,f
  1272  055E                     l346:
  1273  055E                     l336:
  1274  055E  0008               	return
  1275  055F                     __end_of___fltol:
  1276                           
  1277                           	psect	text5
  1278  0619                     __ptext5:	
  1279 ;; *************** function ___fldiv *****************
  1280 ;; Defined at:
  1281 ;;		line 8 in file "C:\Program Files\Microchip\xc8\v2.31\pic\sources\c90\common\sprcdiv.c"
  1282 ;; Parameters:    Size  Location     Type
  1283 ;;  a               4    0[BANK0 ] long 
  1284 ;;  b               4    4[BANK0 ] long 
  1285 ;; Auto vars:     Size  Location     Type
  1286 ;;  grs             4   20[BANK0 ] unsigned long 
  1287 ;;  rem             4   13[BANK0 ] unsigned long 
  1288 ;;  new_exp         2   18[BANK0 ] int 
  1289 ;;  aexp            1   25[BANK0 ] unsigned char 
  1290 ;;  bexp            1   24[BANK0 ] unsigned char 
  1291 ;;  sign            1   17[BANK0 ] unsigned char 
  1292 ;; Return value:  Size  Location     Type
  1293 ;;                  4    0[BANK0 ] unsigned char 
  1294 ;; Registers used:
  1295 ;;		wreg, status,2, status,0, btemp+1
  1296 ;; Tracked objects:
  1297 ;;		On entry : 0/0
  1298 ;;		On exit  : 0/0
  1299 ;;		Unchanged: 0/0
  1300 ;; Data sizes:     COMMON   BANK0   BANK1   BANK3   BANK2
  1301 ;;      Params:         0       8       0       0       0
  1302 ;;      Locals:         0      13       0       0       0
  1303 ;;      Temps:          0       5       0       0       0
  1304 ;;      Totals:         0      26       0       0       0
  1305 ;;Total ram usage:       26 bytes
  1306 ;; Hardware stack levels used:    1
  1307 ;; This function calls:
  1308 ;;		Nothing
  1309 ;; This function is called by:
  1310 ;;		_C_distancia
  1311 ;; This function uses a non-reentrant model
  1312 ;;
  1313                           
  1314                           
  1315                           ;psect for function ___fldiv
  1316  0619                     ___fldiv:
  1317  0619                     l972:	
  1318                           ;incstack = 0
  1319                           ; Regs used in ___fldiv: [wreg+status,2+status,0+btemp+1]
  1320                           
  1321  0619  1283               	bcf	3,5	;RP0=0, select bank0
  1322  061A  1303               	bcf	3,6	;RP1=0, select bank0
  1323  061B  0827               	movf	___fldiv@b+3,w
  1324  061C  3980               	andlw	128
  1325  061D  00A8               	movwf	??___fldiv
  1326  061E  0828               	movf	??___fldiv,w
  1327  061F  00B1               	movwf	___fldiv@sign
  1328  0620                     l974:
  1329  0620  0827               	movf	___fldiv@b+3,w
  1330  0621  00A8               	movwf	??___fldiv
  1331  0622  0728               	addwf	??___fldiv,w
  1332  0623  00A9               	movwf	??___fldiv+1
  1333  0624  0829               	movf	??___fldiv+1,w
  1334  0625  00B8               	movwf	___fldiv@bexp
  1335  0626                     l976:
  1336  0626  1FA6               	btfss	___fldiv@b+2,7
  1337  0627  2E29               	goto	u681
  1338  0628  2E2A               	goto	u680
  1339  0629                     u681:
  1340  0629  2E2B               	goto	l980
  1341  062A                     u680:
  1342  062A                     l978:
  1343  062A  1438               	bsf	___fldiv@bexp,0
  1344  062B                     l980:
  1345  062B  0838               	movf	___fldiv@bexp,w
  1346  062C  1903               	btfsc	3,2
  1347  062D  2E2F               	goto	u691
  1348  062E  2E30               	goto	u690
  1349  062F                     u691:
  1350  062F  2E40               	goto	l990
  1351  0630                     u690:
  1352  0630                     l982:
  1353  0630  0A38               	incf	___fldiv@bexp,w
  1354  0631  1D03               	btfss	3,2
  1355  0632  2E34               	goto	u701
  1356  0633  2E35               	goto	u700
  1357  0634                     u701:
  1358  0634  2E3D               	goto	l986
  1359  0635                     u700:
  1360  0635                     l984:
  1361  0635  3000               	movlw	0
  1362  0636  00A7               	movwf	___fldiv@b+3
  1363  0637  3000               	movlw	0
  1364  0638  00A6               	movwf	___fldiv@b+2
  1365  0639  3000               	movlw	0
  1366  063A  00A5               	movwf	___fldiv@b+1
  1367  063B  3000               	movlw	0
  1368  063C  00A4               	movwf	___fldiv@b
  1369  063D                     l986:
  1370  063D  17A6               	bsf	___fldiv@b+2,7
  1371  063E                     l988:
  1372  063E  01A7               	clrf	___fldiv@b+3
  1373  063F  2E48               	goto	l992
  1374  0640                     l990:
  1375  0640  3000               	movlw	0
  1376  0641  00A7               	movwf	___fldiv@b+3
  1377  0642  3000               	movlw	0
  1378  0643  00A6               	movwf	___fldiv@b+2
  1379  0644  3000               	movlw	0
  1380  0645  00A5               	movwf	___fldiv@b+1
  1381  0646  3000               	movlw	0
  1382  0647  00A4               	movwf	___fldiv@b
  1383  0648                     l992:
  1384  0648  0823               	movf	___fldiv@a+3,w
  1385  0649  3980               	andlw	128
  1386  064A  00A8               	movwf	??___fldiv
  1387  064B  0828               	movf	??___fldiv,w
  1388  064C  06B1               	xorwf	___fldiv@sign,f
  1389  064D                     l994:
  1390  064D  0823               	movf	___fldiv@a+3,w
  1391  064E  00A8               	movwf	??___fldiv
  1392  064F  0728               	addwf	??___fldiv,w
  1393  0650  00A9               	movwf	??___fldiv+1
  1394  0651  0829               	movf	??___fldiv+1,w
  1395  0652  00B9               	movwf	___fldiv@aexp
  1396  0653                     l996:
  1397  0653  1FA2               	btfss	___fldiv@a+2,7
  1398  0654  2E56               	goto	u711
  1399  0655  2E57               	goto	u710
  1400  0656                     u711:
  1401  0656  2E58               	goto	l1000
  1402  0657                     u710:
  1403  0657                     l998:
  1404  0657  1439               	bsf	___fldiv@aexp,0
  1405  0658                     l1000:
  1406  0658  0839               	movf	___fldiv@aexp,w
  1407  0659  1903               	btfsc	3,2
  1408  065A  2E5C               	goto	u721
  1409  065B  2E5D               	goto	u720
  1410  065C                     u721:
  1411  065C  2E6D               	goto	l1010
  1412  065D                     u720:
  1413  065D                     l1002:
  1414  065D  0A39               	incf	___fldiv@aexp,w
  1415  065E  1D03               	btfss	3,2
  1416  065F  2E61               	goto	u731
  1417  0660  2E62               	goto	u730
  1418  0661                     u731:
  1419  0661  2E6A               	goto	l1006
  1420  0662                     u730:
  1421  0662                     l1004:
  1422  0662  3000               	movlw	0
  1423  0663  00A3               	movwf	___fldiv@a+3
  1424  0664  3000               	movlw	0
  1425  0665  00A2               	movwf	___fldiv@a+2
  1426  0666  3000               	movlw	0
  1427  0667  00A1               	movwf	___fldiv@a+1
  1428  0668  3000               	movlw	0
  1429  0669  00A0               	movwf	___fldiv@a
  1430  066A                     l1006:
  1431  066A  17A2               	bsf	___fldiv@a+2,7
  1432  066B                     l1008:
  1433  066B  01A3               	clrf	___fldiv@a+3
  1434  066C  2E75               	goto	l499
  1435  066D                     l1010:
  1436  066D  3000               	movlw	0
  1437  066E  00A3               	movwf	___fldiv@a+3
  1438  066F  3000               	movlw	0
  1439  0670  00A2               	movwf	___fldiv@a+2
  1440  0671  3000               	movlw	0
  1441  0672  00A1               	movwf	___fldiv@a+1
  1442  0673  3000               	movlw	0
  1443  0674  00A0               	movwf	___fldiv@a
  1444  0675                     l499:
  1445  0675  0823               	movf	___fldiv@a+3,w
  1446  0676  0422               	iorwf	___fldiv@a+2,w
  1447  0677  0421               	iorwf	___fldiv@a+1,w
  1448  0678  0420               	iorwf	___fldiv@a,w
  1449  0679  1D03               	skipz
  1450  067A  2E7C               	goto	u741
  1451  067B  2E7D               	goto	u740
  1452  067C                     u741:
  1453  067C  2E96               	goto	l1020
  1454  067D                     u740:
  1455  067D                     l1012:
  1456  067D  3000               	movlw	0
  1457  067E  00A7               	movwf	___fldiv@b+3
  1458  067F  3000               	movlw	0
  1459  0680  00A6               	movwf	___fldiv@b+2
  1460  0681  3000               	movlw	0
  1461  0682  00A5               	movwf	___fldiv@b+1
  1462  0683  3000               	movlw	0
  1463  0684  00A4               	movwf	___fldiv@b
  1464  0685  3080               	movlw	128
  1465  0686  04A6               	iorwf	___fldiv@b+2,f
  1466  0687  307F               	movlw	127
  1467  0688  04A7               	iorwf	___fldiv@b+3,f
  1468  0689                     l1014:
  1469  0689  0831               	movf	___fldiv@sign,w
  1470  068A  00A8               	movwf	??___fldiv
  1471  068B  0828               	movf	??___fldiv,w
  1472  068C  04A7               	iorwf	___fldiv@b+3,f
  1473  068D                     l1016:
  1474  068D  0827               	movf	___fldiv@b+3,w
  1475  068E  00A3               	movwf	?___fldiv+3
  1476  068F  0826               	movf	___fldiv@b+2,w
  1477  0690  00A2               	movwf	?___fldiv+2
  1478  0691  0825               	movf	___fldiv@b+1,w
  1479  0692  00A1               	movwf	?___fldiv+1
  1480  0693  0824               	movf	___fldiv@b,w
  1481  0694  00A0               	movwf	?___fldiv
  1482  0695  2FF5               	goto	l501
  1483  0696                     l1020:
  1484  0696  0838               	movf	___fldiv@bexp,w
  1485  0697  1D03               	btfss	3,2
  1486  0698  2E9A               	goto	u751
  1487  0699  2E9B               	goto	u750
  1488  069A                     u751:
  1489  069A  2EA4               	goto	l1026
  1490  069B                     u750:
  1491  069B                     l1022:
  1492  069B  3000               	movlw	0
  1493  069C  00A3               	movwf	?___fldiv+3
  1494  069D  3000               	movlw	0
  1495  069E  00A2               	movwf	?___fldiv+2
  1496  069F  3000               	movlw	0
  1497  06A0  00A1               	movwf	?___fldiv+1
  1498  06A1  3000               	movlw	0
  1499  06A2  00A0               	movwf	?___fldiv
  1500  06A3  2FF5               	goto	l501
  1501  06A4                     l1026:
  1502  06A4  0838               	movf	___fldiv@bexp,w
  1503  06A5  00A8               	movwf	??___fldiv
  1504  06A6  01A9               	clrf	??___fldiv+1
  1505  06A7  0829               	movf	??___fldiv+1,w
  1506  06A8  00AB               	movwf	??___fldiv+3
  1507  06A9  0839               	movf	___fldiv@aexp,w
  1508  06AA  0228               	subwf	??___fldiv,w
  1509  06AB  00AA               	movwf	??___fldiv+2
  1510  06AC  1C03               	skipc
  1511  06AD  03AB               	decf	??___fldiv+3,f
  1512  06AE  082A               	movf	??___fldiv+2,w
  1513  06AF  3E7F               	addlw	127
  1514  06B0  00B2               	movwf	___fldiv@new_exp
  1515  06B1  082B               	movf	??___fldiv+3,w
  1516  06B2  1803               	skipnc
  1517  06B3  3E01               	addlw	1
  1518  06B4  3E00               	addlw	0
  1519  06B5  00B3               	movwf	___fldiv@new_exp+1
  1520  06B6                     l1028:
  1521  06B6  0827               	movf	___fldiv@b+3,w
  1522  06B7  00B0               	movwf	___fldiv@rem+3
  1523  06B8  0826               	movf	___fldiv@b+2,w
  1524  06B9  00AF               	movwf	___fldiv@rem+2
  1525  06BA  0825               	movf	___fldiv@b+1,w
  1526  06BB  00AE               	movwf	___fldiv@rem+1
  1527  06BC  0824               	movf	___fldiv@b,w
  1528  06BD  00AD               	movwf	___fldiv@rem
  1529  06BE                     l1030:
  1530  06BE  3000               	movlw	0
  1531  06BF  00A7               	movwf	___fldiv@b+3
  1532  06C0  3000               	movlw	0
  1533  06C1  00A6               	movwf	___fldiv@b+2
  1534  06C2  3000               	movlw	0
  1535  06C3  00A5               	movwf	___fldiv@b+1
  1536  06C4  3000               	movlw	0
  1537  06C5  00A4               	movwf	___fldiv@b
  1538  06C6                     l1032:
  1539  06C6  3000               	movlw	0
  1540  06C7  00B7               	movwf	___fldiv@grs+3
  1541  06C8  3000               	movlw	0
  1542  06C9  00B6               	movwf	___fldiv@grs+2
  1543  06CA  3000               	movlw	0
  1544  06CB  00B5               	movwf	___fldiv@grs+1
  1545  06CC  3000               	movlw	0
  1546  06CD  00B4               	movwf	___fldiv@grs
  1547  06CE                     l1034:
  1548  06CE  01B9               	clrf	___fldiv@aexp
  1549  06CF  2F1A               	goto	l1054
  1550  06D0                     l1036:
  1551  06D0  0839               	movf	___fldiv@aexp,w
  1552  06D1  1903               	btfsc	3,2
  1553  06D2  2ED4               	goto	u761
  1554  06D3  2ED5               	goto	u760
  1555  06D4                     u761:
  1556  06D4  2EF5               	goto	l1046
  1557  06D5                     u760:
  1558  06D5                     l1038:
  1559  06D5  3001               	movlw	1
  1560  06D6  00A8               	movwf	??___fldiv
  1561  06D7                     u775:
  1562  06D7  1003               	clrc
  1563  06D8  0DAD               	rlf	___fldiv@rem,f
  1564  06D9  0DAE               	rlf	___fldiv@rem+1,f
  1565  06DA  0DAF               	rlf	___fldiv@rem+2,f
  1566  06DB  0DB0               	rlf	___fldiv@rem+3,f
  1567  06DC  0BA8               	decfsz	??___fldiv,f
  1568  06DD  2ED7               	goto	u775
  1569  06DE  3001               	movlw	1
  1570  06DF  00A8               	movwf	??___fldiv
  1571  06E0                     u785:
  1572  06E0  1003               	clrc
  1573  06E1  0DA4               	rlf	___fldiv@b,f
  1574  06E2  0DA5               	rlf	___fldiv@b+1,f
  1575  06E3  0DA6               	rlf	___fldiv@b+2,f
  1576  06E4  0DA7               	rlf	___fldiv@b+3,f
  1577  06E5  0BA8               	decfsz	??___fldiv,f
  1578  06E6  2EE0               	goto	u785
  1579  06E7                     l1040:
  1580  06E7  1FB7               	btfss	___fldiv@grs+3,7
  1581  06E8  2EEA               	goto	u791
  1582  06E9  2EEB               	goto	u790
  1583  06EA                     u791:
  1584  06EA  2EEC               	goto	l1044
  1585  06EB                     u790:
  1586  06EB                     l1042:
  1587  06EB  1424               	bsf	___fldiv@b,0
  1588  06EC                     l1044:
  1589  06EC  3001               	movlw	1
  1590  06ED  00A8               	movwf	??___fldiv
  1591  06EE                     u805:
  1592  06EE  1003               	clrc
  1593  06EF  0DB4               	rlf	___fldiv@grs,f
  1594  06F0  0DB5               	rlf	___fldiv@grs+1,f
  1595  06F1  0DB6               	rlf	___fldiv@grs+2,f
  1596  06F2  0DB7               	rlf	___fldiv@grs+3,f
  1597  06F3  0BA8               	decfsz	??___fldiv,f
  1598  06F4  2EEE               	goto	u805
  1599  06F5                     l1046:
  1600  06F5  0823               	movf	___fldiv@a+3,w
  1601  06F6  0230               	subwf	___fldiv@rem+3,w
  1602  06F7  1D03               	skipz
  1603  06F8  2F03               	goto	u815
  1604  06F9  0822               	movf	___fldiv@a+2,w
  1605  06FA  022F               	subwf	___fldiv@rem+2,w
  1606  06FB  1D03               	skipz
  1607  06FC  2F03               	goto	u815
  1608  06FD  0821               	movf	___fldiv@a+1,w
  1609  06FE  022E               	subwf	___fldiv@rem+1,w
  1610  06FF  1D03               	skipz
  1611  0700  2F03               	goto	u815
  1612  0701  0820               	movf	___fldiv@a,w
  1613  0702  022D               	subwf	___fldiv@rem,w
  1614  0703                     u815:
  1615  0703  1C03               	skipc
  1616  0704  2F06               	goto	u811
  1617  0705  2F07               	goto	u810
  1618  0706                     u811:
  1619  0706  2F16               	goto	l1052
  1620  0707                     u810:
  1621  0707                     l1048:
  1622  0707  1737               	bsf	___fldiv@grs+3,6
  1623  0708                     l1050:
  1624  0708  0820               	movf	___fldiv@a,w
  1625  0709  02AD               	subwf	___fldiv@rem,f
  1626  070A  0821               	movf	___fldiv@a+1,w
  1627  070B  1C03               	skipc
  1628  070C  0F21               	incfsz	___fldiv@a+1,w
  1629  070D  02AE               	subwf	___fldiv@rem+1,f
  1630  070E  0822               	movf	___fldiv@a+2,w
  1631  070F  1C03               	skipc
  1632  0710  0F22               	incfsz	___fldiv@a+2,w
  1633  0711  02AF               	subwf	___fldiv@rem+2,f
  1634  0712  0823               	movf	___fldiv@a+3,w
  1635  0713  1C03               	skipc
  1636  0714  0F23               	incfsz	___fldiv@a+3,w
  1637  0715  02B0               	subwf	___fldiv@rem+3,f
  1638  0716                     l1052:
  1639  0716  3001               	movlw	1
  1640  0717  00A8               	movwf	??___fldiv
  1641  0718  0828               	movf	??___fldiv,w
  1642  0719  07B9               	addwf	___fldiv@aexp,f
  1643  071A                     l1054:
  1644  071A  301A               	movlw	26
  1645  071B  0239               	subwf	___fldiv@aexp,w
  1646  071C  1C03               	skipc
  1647  071D  2F1F               	goto	u821
  1648  071E  2F20               	goto	u820
  1649  071F                     u821:
  1650  071F  2ED0               	goto	l1036
  1651  0720                     u820:
  1652  0720                     l1056:
  1653  0720  0830               	movf	___fldiv@rem+3,w
  1654  0721  042F               	iorwf	___fldiv@rem+2,w
  1655  0722  042E               	iorwf	___fldiv@rem+1,w
  1656  0723  042D               	iorwf	___fldiv@rem,w
  1657  0724  1903               	skipnz
  1658  0725  2F27               	goto	u831
  1659  0726  2F28               	goto	u830
  1660  0727                     u831:
  1661  0727  2F47               	goto	l1070
  1662  0728                     u830:
  1663  0728                     l1058:
  1664  0728  1434               	bsf	___fldiv@grs,0
  1665  0729  2F47               	goto	l1070
  1666  072A                     l1060:
  1667  072A  3001               	movlw	1
  1668  072B  00A8               	movwf	??___fldiv
  1669  072C                     u845:
  1670  072C  1003               	clrc
  1671  072D  0DA4               	rlf	___fldiv@b,f
  1672  072E  0DA5               	rlf	___fldiv@b+1,f
  1673  072F  0DA6               	rlf	___fldiv@b+2,f
  1674  0730  0DA7               	rlf	___fldiv@b+3,f
  1675  0731  0BA8               	decfsz	??___fldiv,f
  1676  0732  2F2C               	goto	u845
  1677  0733                     l1062:
  1678  0733  1FB7               	btfss	___fldiv@grs+3,7
  1679  0734  2F36               	goto	u851
  1680  0735  2F37               	goto	u850
  1681  0736                     u851:
  1682  0736  2F38               	goto	l1066
  1683  0737                     u850:
  1684  0737                     l1064:
  1685  0737  1424               	bsf	___fldiv@b,0
  1686  0738                     l1066:
  1687  0738  3001               	movlw	1
  1688  0739  00A8               	movwf	??___fldiv
  1689  073A                     u865:
  1690  073A  1003               	clrc
  1691  073B  0DB4               	rlf	___fldiv@grs,f
  1692  073C  0DB5               	rlf	___fldiv@grs+1,f
  1693  073D  0DB6               	rlf	___fldiv@grs+2,f
  1694  073E  0DB7               	rlf	___fldiv@grs+3,f
  1695  073F  0BA8               	decfsz	??___fldiv,f
  1696  0740  2F3A               	goto	u865
  1697  0741                     l1068:
  1698  0741  30FF               	movlw	255
  1699  0742  07B2               	addwf	___fldiv@new_exp,f
  1700  0743  1803               	skipnc
  1701  0744  0AB3               	incf	___fldiv@new_exp+1,f
  1702  0745  30FF               	movlw	255
  1703  0746  07B3               	addwf	___fldiv@new_exp+1,f
  1704  0747                     l1070:
  1705  0747  1FA6               	btfss	___fldiv@b+2,7
  1706  0748  2F4A               	goto	u871
  1707  0749  2F4B               	goto	u870
  1708  074A                     u871:
  1709  074A  2F2A               	goto	l1060
  1710  074B                     u870:
  1711  074B                     l1072:
  1712  074B  01B9               	clrf	___fldiv@aexp
  1713  074C                     l1074:
  1714  074C  1FB7               	btfss	___fldiv@grs+3,7
  1715  074D  2F4F               	goto	u881
  1716  074E  2F50               	goto	u880
  1717  074F                     u881:
  1718  074F  2F6C               	goto	l1082
  1719  0750                     u880:
  1720  0750                     l1076:
  1721  0750  30FF               	movlw	255
  1722  0751  0534               	andwf	___fldiv@grs,w
  1723  0752  00A8               	movwf	??___fldiv
  1724  0753  30FF               	movlw	255
  1725  0754  0535               	andwf	___fldiv@grs+1,w
  1726  0755  00A9               	movwf	??___fldiv+1
  1727  0756  30FF               	movlw	255
  1728  0757  0536               	andwf	___fldiv@grs+2,w
  1729  0758  00AA               	movwf	??___fldiv+2
  1730  0759  307F               	movlw	127
  1731  075A  0537               	andwf	___fldiv@grs+3,w
  1732  075B  00AB               	movwf	??___fldiv+3
  1733  075C  082B               	movf	??___fldiv+3,w
  1734  075D  042A               	iorwf	??___fldiv+2,w
  1735  075E  0429               	iorwf	??___fldiv+1,w
  1736  075F  0428               	iorwf	??___fldiv,w
  1737  0760  1903               	skipnz
  1738  0761  2F63               	goto	u891
  1739  0762  2F64               	goto	u890
  1740  0763                     u891:
  1741  0763  2F67               	goto	l515
  1742  0764                     u890:
  1743  0764                     l1078:
  1744  0764  01B9               	clrf	___fldiv@aexp
  1745  0765  0AB9               	incf	___fldiv@aexp,f
  1746  0766  2F6C               	goto	l1082
  1747  0767                     l515:
  1748  0767  1C24               	btfss	___fldiv@b,0
  1749  0768  2F6A               	goto	u901
  1750  0769  2F6B               	goto	u900
  1751  076A                     u901:
  1752  076A  2F6C               	goto	l1082
  1753  076B                     u900:
  1754  076B  2F64               	goto	l1078
  1755  076C                     l1082:
  1756  076C  0839               	movf	___fldiv@aexp,w
  1757  076D  1903               	btfsc	3,2
  1758  076E  2F70               	goto	u911
  1759  076F  2F71               	goto	u910
  1760  0770                     u911:
  1761  0770  2FA2               	goto	l1092
  1762  0771                     u910:
  1763  0771                     l1084:
  1764  0771  3001               	movlw	1
  1765  0772  07A4               	addwf	___fldiv@b,f
  1766  0773  3000               	movlw	0
  1767  0774  1803               	skipnc
  1768  0775  3001               	movlw	1
  1769  0776  07A5               	addwf	___fldiv@b+1,f
  1770  0777  3000               	movlw	0
  1771  0778  1803               	skipnc
  1772  0779  3001               	movlw	1
  1773  077A  07A6               	addwf	___fldiv@b+2,f
  1774  077B  3000               	movlw	0
  1775  077C  1803               	skipnc
  1776  077D  3001               	movlw	1
  1777  077E  07A7               	addwf	___fldiv@b+3,f
  1778  077F                     l1086:
  1779  077F  1C27               	btfss	___fldiv@b+3,0
  1780  0780  2F82               	goto	u921
  1781  0781  2F83               	goto	u920
  1782  0782                     u921:
  1783  0782  2FA2               	goto	l1092
  1784  0783                     u920:
  1785  0783                     l1088:
  1786  0783  0824               	movf	___fldiv@b,w
  1787  0784  00A8               	movwf	??___fldiv
  1788  0785  0825               	movf	___fldiv@b+1,w
  1789  0786  00A9               	movwf	??___fldiv+1
  1790  0787  0826               	movf	___fldiv@b+2,w
  1791  0788  00AA               	movwf	??___fldiv+2
  1792  0789  0827               	movf	___fldiv@b+3,w
  1793  078A  00AB               	movwf	??___fldiv+3
  1794  078B  3001               	movlw	1
  1795  078C  00AC               	movwf	??___fldiv+4
  1796  078D                     u935:
  1797  078D  0D2B               	rlf	??___fldiv+3,w
  1798  078E  0CAB               	rrf	??___fldiv+3,f
  1799  078F  0CAA               	rrf	??___fldiv+2,f
  1800  0790  0CA9               	rrf	??___fldiv+1,f
  1801  0791  0CA8               	rrf	??___fldiv,f
  1802  0792                     u930:
  1803  0792  0BAC               	decfsz	??___fldiv+4,f
  1804  0793  2F8D               	goto	u935
  1805  0794  082B               	movf	??___fldiv+3,w
  1806  0795  00A7               	movwf	___fldiv@b+3
  1807  0796  082A               	movf	??___fldiv+2,w
  1808  0797  00A6               	movwf	___fldiv@b+2
  1809  0798  0829               	movf	??___fldiv+1,w
  1810  0799  00A5               	movwf	___fldiv@b+1
  1811  079A  0828               	movf	??___fldiv,w
  1812  079B  00A4               	movwf	___fldiv@b
  1813  079C                     l1090:
  1814  079C  3001               	movlw	1
  1815  079D  07B2               	addwf	___fldiv@new_exp,f
  1816  079E  1803               	skipnc
  1817  079F  0AB3               	incf	___fldiv@new_exp+1,f
  1818  07A0  3000               	movlw	0
  1819  07A1  07B3               	addwf	___fldiv@new_exp+1,f
  1820  07A2                     l1092:
  1821  07A2  0833               	movf	___fldiv@new_exp+1,w
  1822  07A3  3A80               	xorlw	128
  1823  07A4  00FF               	movwf	btemp+1
  1824  07A5  3080               	movlw	128
  1825  07A6  027F               	subwf	btemp+1,w
  1826  07A7  1D03               	skipz
  1827  07A8  2FAB               	goto	u945
  1828  07A9  30FF               	movlw	255
  1829  07AA  0232               	subwf	___fldiv@new_exp,w
  1830  07AB                     u945:
  1831  07AB  1C03               	skipc
  1832  07AC  2FAE               	goto	u941
  1833  07AD  2FAF               	goto	u940
  1834  07AE                     u941:
  1835  07AE  2FBD               	goto	l1096
  1836  07AF                     u940:
  1837  07AF                     l1094:
  1838  07AF  30FF               	movlw	255
  1839  07B0  1283               	bcf	3,5	;RP0=0, select bank0
  1840  07B1  1303               	bcf	3,6	;RP1=0, select bank0
  1841  07B2  00B2               	movwf	___fldiv@new_exp
  1842  07B3  3000               	movlw	0
  1843  07B4  00B3               	movwf	___fldiv@new_exp+1
  1844  07B5  3000               	movlw	0
  1845  07B6  00A7               	movwf	___fldiv@b+3
  1846  07B7  3000               	movlw	0
  1847  07B8  00A6               	movwf	___fldiv@b+2
  1848  07B9  3000               	movlw	0
  1849  07BA  00A5               	movwf	___fldiv@b+1
  1850  07BB  3000               	movlw	0
  1851  07BC  00A4               	movwf	___fldiv@b
  1852  07BD                     l1096:
  1853  07BD  1283               	bcf	3,5	;RP0=0, select bank0
  1854  07BE  1303               	bcf	3,6	;RP1=0, select bank0
  1855  07BF  0833               	movf	___fldiv@new_exp+1,w
  1856  07C0  3A80               	xorlw	128
  1857  07C1  00FF               	movwf	btemp+1
  1858  07C2  3080               	movlw	128
  1859  07C3  027F               	subwf	btemp+1,w
  1860  07C4  1D03               	skipz
  1861  07C5  2FC8               	goto	u955
  1862  07C6  3001               	movlw	1
  1863  07C7  0232               	subwf	___fldiv@new_exp,w
  1864  07C8                     u955:
  1865  07C8  1803               	skipnc
  1866  07C9  2FCB               	goto	u951
  1867  07CA  2FCC               	goto	u950
  1868  07CB                     u951:
  1869  07CB  2FD9               	goto	l521
  1870  07CC                     u950:
  1871  07CC                     l1098:
  1872  07CC  1283               	bcf	3,5	;RP0=0, select bank0
  1873  07CD  1303               	bcf	3,6	;RP1=0, select bank0
  1874  07CE  01B2               	clrf	___fldiv@new_exp
  1875  07CF  01B3               	clrf	___fldiv@new_exp+1
  1876  07D0                     l1100:
  1877  07D0  3000               	movlw	0
  1878  07D1  00A7               	movwf	___fldiv@b+3
  1879  07D2  3000               	movlw	0
  1880  07D3  00A6               	movwf	___fldiv@b+2
  1881  07D4  3000               	movlw	0
  1882  07D5  00A5               	movwf	___fldiv@b+1
  1883  07D6  3000               	movlw	0
  1884  07D7  00A4               	movwf	___fldiv@b
  1885  07D8                     l1102:
  1886  07D8  01B1               	clrf	___fldiv@sign
  1887  07D9                     l521:
  1888  07D9  1283               	bcf	3,5	;RP0=0, select bank0
  1889  07DA  1303               	bcf	3,6	;RP1=0, select bank0
  1890  07DB  0832               	movf	___fldiv@new_exp,w
  1891  07DC  00A8               	movwf	??___fldiv
  1892  07DD  0828               	movf	??___fldiv,w
  1893  07DE  00B8               	movwf	___fldiv@bexp
  1894  07DF                     l1104:
  1895  07DF  1C38               	btfss	___fldiv@bexp,0
  1896  07E0  2FE2               	goto	u961
  1897  07E1  2FE3               	goto	u960
  1898  07E2                     u961:
  1899  07E2  2FE5               	goto	l1108
  1900  07E3                     u960:
  1901  07E3                     l1106:
  1902  07E3  17A6               	bsf	___fldiv@b+2,7
  1903  07E4  2FE9               	goto	l523
  1904  07E5                     l1108:
  1905  07E5  307F               	movlw	127
  1906  07E6  00A8               	movwf	??___fldiv
  1907  07E7  0828               	movf	??___fldiv,w
  1908  07E8  05A6               	andwf	___fldiv@b+2,f
  1909  07E9                     l523:
  1910  07E9  0838               	movf	___fldiv@bexp,w
  1911  07EA  00A8               	movwf	??___fldiv
  1912  07EB  1003               	clrc
  1913  07EC  0C28               	rrf	??___fldiv,w
  1914  07ED  00A9               	movwf	??___fldiv+1
  1915  07EE  0829               	movf	??___fldiv+1,w
  1916  07EF  00A7               	movwf	___fldiv@b+3
  1917  07F0  0831               	movf	___fldiv@sign,w
  1918  07F1  00A8               	movwf	??___fldiv
  1919  07F2  0828               	movf	??___fldiv,w
  1920  07F3  04A7               	iorwf	___fldiv@b+3,f
  1921  07F4  2E8D               	goto	l1016
  1922  07F5                     l501:
  1923  07F5  0008               	return
  1924  07F6                     __end_of___fldiv:
  1925  007E                     btemp	set	126	;btemp
  1926  007E                     wtemp0	set	126
  1927                           
  1928                           	psect	config
  1929                           
  1930                           ;Config register CONFIG1 @ 0x2007
  1931                           ;	Oscillator Selection bits
  1932                           ;	FOSC = INTRC_NOCLKOUT, INTOSCIO oscillator: I/O function on RA6/OSC2/CLKOUT pin, I/O f
      +                          unction on RA7/OSC1/CLKIN
  1933                           ;	Watchdog Timer Enable bit
  1934                           ;	WDTE = OFF, WDT disabled and can be enabled by SWDTEN bit of the WDTCON register
  1935                           ;	Power-up Timer Enable bit
  1936                           ;	PWRTE = OFF, PWRT disabled
  1937                           ;	RE3/MCLR pin function select bit
  1938                           ;	MCLRE = OFF, RE3/MCLR pin function is digital input, MCLR internally tied to VDD
  1939                           ;	Code Protection bit
  1940                           ;	CP = OFF, Program memory code protection is disabled
  1941                           ;	Data Code Protection bit
  1942                           ;	CPD = OFF, Data memory code protection is disabled
  1943                           ;	Brown Out Reset Selection bits
  1944                           ;	BOREN = OFF, BOR disabled
  1945                           ;	Internal External Switchover bit
  1946                           ;	IESO = OFF, Internal/External Switchover mode is disabled
  1947                           ;	Fail-Safe Clock Monitor Enabled bit
  1948                           ;	FCMEN = OFF, Fail-Safe Clock Monitor is disabled
  1949                           ;	Low Voltage Programming Enable bit
  1950                           ;	LVP = OFF, RB3 pin has digital I/O, HV on MCLR must be used for programming
  1951                           ;	In-Circuit Debugger Mode bit
  1952                           ;	DEBUG = 0x1, unprogrammed default
  1953  2007                     	org	8199
  1954  2007  20D4               	dw	8404
  1955                           
  1956                           ;Config register CONFIG2 @ 0x2008
  1957                           ;	Brown-out Reset Selection bit
  1958                           ;	BOR4V = BOR40V, Brown-out Reset set to 4.0V
  1959                           ;	Flash Program Memory Self Write Enable bits
  1960                           ;	WRT = OFF, Write protection off
  1961  2008                     	org	8200
  1962  2008  3FFF               	dw	16383

Data Sizes:
    Strings     0
    Constant    0
    Data        0
    BSS         4
    Persistent  0
    Stack       0

Auto Spaces:
    Space          Size  Autos    Used
    COMMON           14     14      14
    BANK0            80     43      47
    BANK1            80      0       0
    BANK3            96      0       0
    BANK2            96      0       0

Pointer List with Targets:

    None.

Critical Paths under _main in COMMON

    _C_distancia->___xxtofl
    ___fltol->___xxtofl
    ___fldiv->___xxtofl

Critical Paths under _main in BANK0

    _main->_C_distancia
    _C_distancia->___fltol
    ___fltol->___fldiv

Critical Paths under _main in BANK1

    None.

Critical Paths under _main in BANK3

    None.

Critical Paths under _main in BANK2

    None.

Call Graph Tables:

 ---------------------------------------------------------------------------------
 (Depth) Function   	        Calls       Base Space   Used Autos Params    Refs
 ---------------------------------------------------------------------------------
 (0) _main                                                 3     3      0    1976
                                             40 BANK0      3     3      0
                        _C_distancia
                              _setup
 ---------------------------------------------------------------------------------
 (1) _setup                                                0     0      0       0
 ---------------------------------------------------------------------------------
 (1) _C_distancia                                          3     1      2    1976
                                             37 BANK0      3     1      2
                            ___fldiv
                            ___fltol
                           ___xxtofl
 ---------------------------------------------------------------------------------
 (2) ___xxtofl                                            14    10      4     398
                                              0 COMMON    14    10      4
 ---------------------------------------------------------------------------------
 (2) ___fltol                                             11     7      4     305
                                             26 BANK0     11     7      4
                            ___fldiv (ARG)
                           ___xxtofl (ARG)
 ---------------------------------------------------------------------------------
 (2) ___fldiv                                             26    18      8    1273
                                              0 BANK0     26    18      8
                           ___xxtofl (ARG)
 ---------------------------------------------------------------------------------
 Estimated maximum stack depth 2
 ---------------------------------------------------------------------------------

 Call Graph Graphs:

 _main (ROOT)
   _C_distancia
     ___fldiv
       ___xxtofl (ARG)
     ___fltol
       ___fldiv (ARG)
         ___xxtofl (ARG)
       ___xxtofl (ARG)
     ___xxtofl
   _setup

 Address spaces:
Name               Size   Autos  Total    Cost      Usage
BITCOMMON            E      0       0       0        0.0%
EEDATA             100      0       0       0        0.0%
NULL                 0      0       0       0        0.0%
CODE                 0      0       0       0        0.0%
COMMON               E      E       E       1      100.0%
BITSFR0              0      0       0       1        0.0%
SFR0                 0      0       0       1        0.0%
BITSFR1              0      0       0       2        0.0%
SFR1                 0      0       0       2        0.0%
STACK                0      0       0       2        0.0%
ABS                  0      0      3D       3        0.0%
BITBANK0            50      0       0       4        0.0%
BITSFR3              0      0       0       4        0.0%
SFR3                 0      0       0       4        0.0%
BANK0               50     2B      2F       5       58.8%
BITSFR2              0      0       0       5        0.0%
SFR2                 0      0       0       5        0.0%
BITBANK1            50      0       0       6        0.0%
BANK1               50      0       0       7        0.0%
BITBANK3            60      0       0       8        0.0%
BANK3               60      0       0       9        0.0%
BITBANK2            60      0       0      10        0.0%
BANK2               60      0       0      11        0.0%
DATA                 0      0      3D      12        0.0%


Microchip Technology PIC Macro Assembler V2.31 build 20201012212115 
Symbol Table                                                                                   Tue Aug 31 22:49:14 2021

           ___fldiv@aexp 0039             ___fldiv@bexp 0038             ___fldiv@sign 0031  
                     l51 0478                       l60 04A4                       l61 04A5  
                     l45 043F                       l63 04A9                       l64 04E2  
                     l58 04A0                      l501 07F5                      l343 0549  
                    l336 055E                      l521 07D9                      l346 055E  
                    l523 07E9                      l515 0767                      l583 0581  
                    l585 0618                      l499 0675                      l596 05E2  
                    l597 05EE                      l589 05C6                      l950 0519  
                    l942 04F9                      l952 051D                      l960 0537  
                    l944 050E                      l936 04E3                      l970 0553  
                    l946 050F                      l938 04F0                      l980 062B  
                    l972 0619                      l948 0517                      l982 0630  
                    l990 0640                      l974 0620                      l966 053E  
                    l958 0525                      l992 0648                      l984 0635  
                    l976 0626                      l968 054E                      l994 064D  
                    l986 063D                      l978 062A                      l996 0653  
                    l988 063E                      l998 0657                      u600 051D  
                    u601 051C                      u610 0524                      u611 0523  
                    u700 0635                      u701 0634                      u710 0657  
                    u630 0536                      u711 0656                      u631 0535  
                    u720 065D                      u640 053D                      u721 065C  
                    u641 053C                      u625 0526                      u810 0707  
                    u730 0662                      u811 0706                      u731 0661  
                    u900 076B                      u820 0720                      u740 067D  
                    u660 054E                      u580 04F0                      u901 076A  
                    u821 071F                      u805 06EE                      u741 067C  
                    u661 054D                      u581 04EF                      u910 0771  
                    u830 0728                      u750 069B                      u670 0553  
                    u590 0507                      u911 0770                      u831 0727  
                    u815 0703                      u751 069A                      u671 0552  
                    u655 0540                      u920 0783                      u760 06D5  
                    u680 062A                      u921 0782                      u761 06D4  
                    u681 0629                      u930 0792                      u850 0737  
                    u690 0630                      u851 0736                      u691 062F  
                    u595 0502                      u940 07AF                      u941 07AE  
                    u845 072C                      u950 07CC                      u870 074B  
                    u790 06EB                      u951 07CB                      u935 078D  
                    u871 074A                      u791 06EA                      u775 06D7  
                    u960 07E3                      u880 0750                      u961 07E2  
                    u945 07AB                      u881 074F                      u865 073A  
                    u785 06E0                      u890 0764                      u970 0565  
                    u955 07C8                      u891 0763                      u971 0564  
                    u980 0569                      u981 0568                      u990 0589  
                    u991 0588              _C_distancia 0490             ___fltol@exp1 0044  
                   l1000 0658                     l1002 065D                     l1010 066D  
                   l1100 07D0                     l1012 067D                     l1020 0696  
                   l1004 0662                     l1102 07D8                     l1030 06BE  
                   l1022 069B                     l1014 0689                     l1006 066A  
                   l1104 07DF                     l1040 06E7                     l1032 06C6  
                   l1016 068D                     l1008 066B                     l1120 0579  
                   l1200 0445                     l1106 07E3                     l1050 0708  
                   l1042 06EB                     l1034 06CE                     l1026 06A4  
                   l1130 05A4                     l1122 0589                     l1114 0560  
                   l1210 046E                     l1202 0454                     l1108 07E5  
                   l1060 072A                     l1052 0716                     l1044 06EC  
                   l1036 06D0                     l1028 06B6                     l1140 05D8  
                   l1132 05AB                     l1116 0565                     l1212 0480  
                   l1204 0462                     l1062 0733                     l1070 0747  
                   l1038 06D5                     l1046 06F5                     l1054 071A  
                   l1150 060B                     l1142 05DC                     l1134 05AF  
                   l1126 0592                     l1118 0569                     l1214 0482  
                   l1206 0466                     l1072 074B                     l1064 0737  
                   l1056 0720                     l1048 0707                     l1152 060F  
                   l1144 05E6                     l1136 05BD                     l1128 0597  
                   l1160 041F                     l1208 046C                     l1090 079C  
                   l1082 076C                     l1074 074C                     l1066 0738  
                   l1058 0728                     l1154 0610                     l1146 05F0  
                   l1138 05CD                     l1170 0430                     l1162 0422  
                   l1084 0771                     l1092 07A2                     l1076 0750  
                   l1068 0741                     l1148 0606                     l1180 0439  
                   l1172 0431                     l1164 0423                     l1094 07AF  
                   l1086 077F                     l1078 0764                     l1190 0496  
                   l1182 043D                     l1174 0432                     l1166 0424  
                   l1158 041B                     l1096 07BD                     l1088 0783  
                   l1192 049D                     l1184 043E                     l1176 0433  
                   l1168 042D                     l1098 07CC                     l1194 04AA  
                   l1186 0490                     l1178 0434                     l1188 0495  
                   l1198 0440                     _FLAG 004E                     u1010 05AA  
                   u1011 05A9                     u1100 060F                     u1101 060E  
                   u1005 059C                     u1030 05CC                     u1110 04A4  
                   u1031 05CB                     u1111 04A3                     u1120 04A9  
                   u1025 05BE                     u1121 04A8                     u1050 05DC  
                   u1130 046C                     u1051 05DB                     u1131 046B  
                   u1060 05E2                     u1140 0480                     u1061 05E1  
                   u1045 05D1                     u1141 047F                     u1070 05E6  
                   u1071 05E5                     u1080 05FB                     u1090 060B  
                   u1091 060A                     u1085 05F6                     u1157 044D  
                   u1167 0474                     u1177 0488                     u1187 049A  
                   _TMR1 000E                     _dist 004D                     _main 0440  
                   btemp 007E                     start 0000          ___fldiv@new_exp 0032  
          ___fltol@sign1 0043                    ?_main 0070          __end_of___fldiv 07F6  
        __end_of___fltol 055F                    _ANSEL 0188                    _TMR1C 004B  
                  _PORTA 0005                    _PORTB 0006                    _PORTC 0007  
                  _PORTD 0008                    _PORTE 0009                    _TRISD 0088  
                  _setup 041B                    status 0003                    wtemp0 007E  
        __initialization 07F6             __end_of_main 0490                   ??_main 0048  
                 ?_setup 0070                   _ANSELH 0189         __end_of___xxtofl 0619  
              ??___fldiv 0028                ??___fltol 003E             ___xxtofl@arg 007A  
           ___xxtofl@exp 0079             ___xxtofl@val 0070  __end_of__initialization 07FC  
             ___fltol@f1 003A           __pcstackCOMMON 0070            __end_of_setup 0440  
           ?_C_distancia 0045                  ??_setup 0070               __pbssBANK0 004B  
             __pmaintext 0440                ?___xxtofl 0070                  ___fldiv 0619  
                ___fltol 04E3                  __ptext1 041B                  __ptext2 0490  
                __ptext3 055F                  __ptext4 04E3                  __ptext5 0619  
              _T1CONbits 0010               ??___xxtofl 0074     end_of_initialization 07FC  
              _PORTBbits 0006                _PORTCbits 0007            ___xxtofl@sign 0078  
              _TRISBbits 0086                _TRISCbits 0087              ___fldiv@grs 0034  
            ___fldiv@rem 002D     __size_of_C_distancia 0053      start_initialization 07F6  
              ___fldiv@a 0020                ___fldiv@b 0024                ___latbits 0002  
          __pcstackBANK0 0020        __size_of___xxtofl 00BA                 ?___fldiv 0020  
               ?___fltol 003A           __size_of_setup 0025         __size_of___fldiv 01DD  
       __size_of___fltol 007C                 ___xxtofl 055F            ??_C_distancia 0047  
          __size_of_main 0050               _INTCONbits 000B      __end_of_C_distancia 04E3  
             _OSCCONbits 008F  
